ARM GAS  /var/folders/bp/hbn4m0qx5z54srgsq53w67zh0000gr/T//ccHTsbES.s 			page 1


   1              		.cpu cortex-m4
   2              		.eabi_attribute 27, 1
   3              		.eabi_attribute 28, 1
   4              		.eabi_attribute 20, 1
   5              		.eabi_attribute 21, 1
   6              		.eabi_attribute 23, 3
   7              		.eabi_attribute 24, 1
   8              		.eabi_attribute 25, 1
   9              		.eabi_attribute 26, 1
  10              		.eabi_attribute 30, 1
  11              		.eabi_attribute 34, 1
  12              		.eabi_attribute 18, 4
  13              		.file	"can.c"
  14              		.text
  15              	.Ltext0:
  16              		.cfi_sections	.debug_frame
  17              		.section	.text.MX_CAN_Init,"ax",%progbits
  18              		.align	1
  19              		.global	MX_CAN_Init
  20              		.arch armv7e-m
  21              		.syntax unified
  22              		.thumb
  23              		.thumb_func
  24              		.fpu fpv4-sp-d16
  26              	MX_CAN_Init:
  27              	.LFB123:
  28              		.file 1 "Core/Src/can.c"
   1:Core/Src/can.c **** /* USER CODE BEGIN Header */
   2:Core/Src/can.c **** /**
   3:Core/Src/can.c ****   ******************************************************************************
   4:Core/Src/can.c ****   * @file    can.c
   5:Core/Src/can.c ****   * @brief   This file provides code for the configuration
   6:Core/Src/can.c ****   *          of the CAN instances.
   7:Core/Src/can.c ****   ******************************************************************************
   8:Core/Src/can.c ****   * @attention
   9:Core/Src/can.c ****   *
  10:Core/Src/can.c ****   * Copyright (c) 2023 STMicroelectronics.
  11:Core/Src/can.c ****   * All rights reserved.
  12:Core/Src/can.c ****   *
  13:Core/Src/can.c ****   * This software is licensed under terms that can be found in the LICENSE file
  14:Core/Src/can.c ****   * in the root directory of this software component.
  15:Core/Src/can.c ****   * If no LICENSE file comes with this software, it is provided AS-IS.
  16:Core/Src/can.c ****   *
  17:Core/Src/can.c ****   ******************************************************************************
  18:Core/Src/can.c ****   */
  19:Core/Src/can.c **** /* USER CODE END Header */
  20:Core/Src/can.c **** /* Includes ------------------------------------------------------------------*/
  21:Core/Src/can.c **** #include "can.h"
  22:Core/Src/can.c **** 
  23:Core/Src/can.c **** /* USER CODE BEGIN 0 */
  24:Core/Src/can.c **** 
  25:Core/Src/can.c **** /* USER CODE END 0 */
  26:Core/Src/can.c **** 
  27:Core/Src/can.c **** CAN_HandleTypeDef hcan;
  28:Core/Src/can.c **** 
  29:Core/Src/can.c **** /* CAN init function */
  30:Core/Src/can.c **** void MX_CAN_Init(void)
ARM GAS  /var/folders/bp/hbn4m0qx5z54srgsq53w67zh0000gr/T//ccHTsbES.s 			page 2


  31:Core/Src/can.c **** {
  29              		.loc 1 31 1 view -0
  30              		.cfi_startproc
  31              		@ args = 0, pretend = 0, frame = 0
  32              		@ frame_needed = 0, uses_anonymous_args = 0
  33 0000 08B5     		push	{r3, lr}
  34              	.LCFI0:
  35              		.cfi_def_cfa_offset 8
  36              		.cfi_offset 3, -8
  37              		.cfi_offset 14, -4
  32:Core/Src/can.c **** 
  33:Core/Src/can.c ****   /* USER CODE BEGIN CAN_Init 0 */
  34:Core/Src/can.c **** 
  35:Core/Src/can.c ****   /* USER CODE END CAN_Init 0 */
  36:Core/Src/can.c **** 
  37:Core/Src/can.c ****   /* USER CODE BEGIN CAN_Init 1 */
  38:Core/Src/can.c **** 
  39:Core/Src/can.c ****   /* USER CODE END CAN_Init 1 */
  40:Core/Src/can.c ****   hcan.Instance = CAN;
  38              		.loc 1 40 3 view .LVU1
  39              		.loc 1 40 17 is_stmt 0 view .LVU2
  40 0002 0C48     		ldr	r0, .L5
  41 0004 0C4B     		ldr	r3, .L5+4
  42 0006 0360     		str	r3, [r0]
  41:Core/Src/can.c ****   hcan.Init.Prescaler = 2;
  43              		.loc 1 41 3 is_stmt 1 view .LVU3
  44              		.loc 1 41 23 is_stmt 0 view .LVU4
  45 0008 0223     		movs	r3, #2
  46 000a 4360     		str	r3, [r0, #4]
  42:Core/Src/can.c ****   hcan.Init.Mode = CAN_MODE_NORMAL;
  47              		.loc 1 42 3 is_stmt 1 view .LVU5
  48              		.loc 1 42 18 is_stmt 0 view .LVU6
  49 000c 0023     		movs	r3, #0
  50 000e 8360     		str	r3, [r0, #8]
  43:Core/Src/can.c ****   hcan.Init.SyncJumpWidth = CAN_SJW_1TQ;
  51              		.loc 1 43 3 is_stmt 1 view .LVU7
  52              		.loc 1 43 27 is_stmt 0 view .LVU8
  53 0010 C360     		str	r3, [r0, #12]
  44:Core/Src/can.c ****   hcan.Init.TimeSeg1 = CAN_BS1_8TQ;
  54              		.loc 1 44 3 is_stmt 1 view .LVU9
  55              		.loc 1 44 22 is_stmt 0 view .LVU10
  56 0012 4FF4E022 		mov	r2, #458752
  57 0016 0261     		str	r2, [r0, #16]
  45:Core/Src/can.c ****   hcan.Init.TimeSeg2 = CAN_BS2_1TQ;
  58              		.loc 1 45 3 is_stmt 1 view .LVU11
  59              		.loc 1 45 22 is_stmt 0 view .LVU12
  60 0018 4361     		str	r3, [r0, #20]
  46:Core/Src/can.c ****   hcan.Init.TimeTriggeredMode = DISABLE;
  61              		.loc 1 46 3 is_stmt 1 view .LVU13
  62              		.loc 1 46 31 is_stmt 0 view .LVU14
  63 001a 0376     		strb	r3, [r0, #24]
  47:Core/Src/can.c ****   hcan.Init.AutoBusOff = DISABLE;
  64              		.loc 1 47 3 is_stmt 1 view .LVU15
  65              		.loc 1 47 24 is_stmt 0 view .LVU16
  66 001c 4376     		strb	r3, [r0, #25]
  48:Core/Src/can.c ****   hcan.Init.AutoWakeUp = DISABLE;
  67              		.loc 1 48 3 is_stmt 1 view .LVU17
ARM GAS  /var/folders/bp/hbn4m0qx5z54srgsq53w67zh0000gr/T//ccHTsbES.s 			page 3


  68              		.loc 1 48 24 is_stmt 0 view .LVU18
  69 001e 8376     		strb	r3, [r0, #26]
  49:Core/Src/can.c ****   hcan.Init.AutoRetransmission = DISABLE;
  70              		.loc 1 49 3 is_stmt 1 view .LVU19
  71              		.loc 1 49 32 is_stmt 0 view .LVU20
  72 0020 C376     		strb	r3, [r0, #27]
  50:Core/Src/can.c ****   hcan.Init.ReceiveFifoLocked = DISABLE;
  73              		.loc 1 50 3 is_stmt 1 view .LVU21
  74              		.loc 1 50 31 is_stmt 0 view .LVU22
  75 0022 0377     		strb	r3, [r0, #28]
  51:Core/Src/can.c ****   hcan.Init.TransmitFifoPriority = DISABLE;
  76              		.loc 1 51 3 is_stmt 1 view .LVU23
  77              		.loc 1 51 34 is_stmt 0 view .LVU24
  78 0024 4377     		strb	r3, [r0, #29]
  52:Core/Src/can.c ****   if (HAL_CAN_Init(&hcan) != HAL_OK)
  79              		.loc 1 52 3 is_stmt 1 view .LVU25
  80              		.loc 1 52 7 is_stmt 0 view .LVU26
  81 0026 FFF7FEFF 		bl	HAL_CAN_Init
  82              	.LVL0:
  83              		.loc 1 52 6 view .LVU27
  84 002a 00B9     		cbnz	r0, .L4
  85              	.L1:
  53:Core/Src/can.c ****   {
  54:Core/Src/can.c ****     Error_Handler();
  55:Core/Src/can.c ****   }
  56:Core/Src/can.c ****   /* USER CODE BEGIN CAN_Init 2 */
  57:Core/Src/can.c **** 
  58:Core/Src/can.c ****   /* USER CODE END CAN_Init 2 */
  59:Core/Src/can.c **** 
  60:Core/Src/can.c **** }
  86              		.loc 1 60 1 view .LVU28
  87 002c 08BD     		pop	{r3, pc}
  88              	.L4:
  54:Core/Src/can.c ****   }
  89              		.loc 1 54 5 is_stmt 1 view .LVU29
  90 002e FFF7FEFF 		bl	Error_Handler
  91              	.LVL1:
  92              		.loc 1 60 1 is_stmt 0 view .LVU30
  93 0032 FBE7     		b	.L1
  94              	.L6:
  95              		.align	2
  96              	.L5:
  97 0034 00000000 		.word	.LANCHOR0
  98 0038 00640040 		.word	1073767424
  99              		.cfi_endproc
 100              	.LFE123:
 102              		.section	.text.HAL_CAN_MspInit,"ax",%progbits
 103              		.align	1
 104              		.global	HAL_CAN_MspInit
 105              		.syntax unified
 106              		.thumb
 107              		.thumb_func
 108              		.fpu fpv4-sp-d16
 110              	HAL_CAN_MspInit:
 111              	.LVL2:
 112              	.LFB124:
  61:Core/Src/can.c **** 
ARM GAS  /var/folders/bp/hbn4m0qx5z54srgsq53w67zh0000gr/T//ccHTsbES.s 			page 4


  62:Core/Src/can.c **** void HAL_CAN_MspInit(CAN_HandleTypeDef* canHandle)
  63:Core/Src/can.c **** {
 113              		.loc 1 63 1 is_stmt 1 view -0
 114              		.cfi_startproc
 115              		@ args = 0, pretend = 0, frame = 32
 116              		@ frame_needed = 0, uses_anonymous_args = 0
 117              		.loc 1 63 1 is_stmt 0 view .LVU32
 118 0000 00B5     		push	{lr}
 119              	.LCFI1:
 120              		.cfi_def_cfa_offset 4
 121              		.cfi_offset 14, -4
 122 0002 89B0     		sub	sp, sp, #36
 123              	.LCFI2:
 124              		.cfi_def_cfa_offset 40
  64:Core/Src/can.c **** 
  65:Core/Src/can.c ****   GPIO_InitTypeDef GPIO_InitStruct = {0};
 125              		.loc 1 65 3 is_stmt 1 view .LVU33
 126              		.loc 1 65 20 is_stmt 0 view .LVU34
 127 0004 0023     		movs	r3, #0
 128 0006 0393     		str	r3, [sp, #12]
 129 0008 0493     		str	r3, [sp, #16]
 130 000a 0593     		str	r3, [sp, #20]
 131 000c 0693     		str	r3, [sp, #24]
 132 000e 0793     		str	r3, [sp, #28]
  66:Core/Src/can.c ****   if(canHandle->Instance==CAN)
 133              		.loc 1 66 3 is_stmt 1 view .LVU35
 134              		.loc 1 66 15 is_stmt 0 view .LVU36
 135 0010 0268     		ldr	r2, [r0]
 136              		.loc 1 66 5 view .LVU37
 137 0012 144B     		ldr	r3, .L11
 138 0014 9A42     		cmp	r2, r3
 139 0016 02D0     		beq	.L10
 140              	.LVL3:
 141              	.L7:
  67:Core/Src/can.c ****   {
  68:Core/Src/can.c ****   /* USER CODE BEGIN CAN_MspInit 0 */
  69:Core/Src/can.c **** 
  70:Core/Src/can.c ****   /* USER CODE END CAN_MspInit 0 */
  71:Core/Src/can.c ****     /* CAN clock enable */
  72:Core/Src/can.c ****     __HAL_RCC_CAN1_CLK_ENABLE();
  73:Core/Src/can.c **** 
  74:Core/Src/can.c ****     __HAL_RCC_GPIOA_CLK_ENABLE();
  75:Core/Src/can.c ****     /**CAN GPIO Configuration
  76:Core/Src/can.c ****     PA11     ------> CAN_RX
  77:Core/Src/can.c ****     PA12     ------> CAN_TX
  78:Core/Src/can.c ****     */
  79:Core/Src/can.c ****     GPIO_InitStruct.Pin = GPIO_PIN_11|GPIO_PIN_12;
  80:Core/Src/can.c ****     GPIO_InitStruct.Mode = GPIO_MODE_AF_PP;
  81:Core/Src/can.c ****     GPIO_InitStruct.Pull = GPIO_NOPULL;
  82:Core/Src/can.c ****     GPIO_InitStruct.Speed = GPIO_SPEED_FREQ_HIGH;
  83:Core/Src/can.c ****     GPIO_InitStruct.Alternate = GPIO_AF9_CAN;
  84:Core/Src/can.c ****     HAL_GPIO_Init(GPIOA, &GPIO_InitStruct);
  85:Core/Src/can.c **** 
  86:Core/Src/can.c ****   /* USER CODE BEGIN CAN_MspInit 1 */
  87:Core/Src/can.c **** 
  88:Core/Src/can.c ****   /* USER CODE END CAN_MspInit 1 */
  89:Core/Src/can.c ****   }
ARM GAS  /var/folders/bp/hbn4m0qx5z54srgsq53w67zh0000gr/T//ccHTsbES.s 			page 5


  90:Core/Src/can.c **** }
 142              		.loc 1 90 1 view .LVU38
 143 0018 09B0     		add	sp, sp, #36
 144              	.LCFI3:
 145              		.cfi_remember_state
 146              		.cfi_def_cfa_offset 4
 147              		@ sp needed
 148 001a 5DF804FB 		ldr	pc, [sp], #4
 149              	.LVL4:
 150              	.L10:
 151              	.LCFI4:
 152              		.cfi_restore_state
  72:Core/Src/can.c **** 
 153              		.loc 1 72 5 is_stmt 1 view .LVU39
 154              	.LBB2:
  72:Core/Src/can.c **** 
 155              		.loc 1 72 5 view .LVU40
  72:Core/Src/can.c **** 
 156              		.loc 1 72 5 view .LVU41
 157 001e 03F5D633 		add	r3, r3, #109568
 158 0022 DA69     		ldr	r2, [r3, #28]
 159 0024 42F00072 		orr	r2, r2, #33554432
 160 0028 DA61     		str	r2, [r3, #28]
  72:Core/Src/can.c **** 
 161              		.loc 1 72 5 view .LVU42
 162 002a DA69     		ldr	r2, [r3, #28]
 163 002c 02F00072 		and	r2, r2, #33554432
 164 0030 0192     		str	r2, [sp, #4]
  72:Core/Src/can.c **** 
 165              		.loc 1 72 5 view .LVU43
 166 0032 019A     		ldr	r2, [sp, #4]
 167              	.LBE2:
  72:Core/Src/can.c **** 
 168              		.loc 1 72 5 view .LVU44
  74:Core/Src/can.c ****     /**CAN GPIO Configuration
 169              		.loc 1 74 5 view .LVU45
 170              	.LBB3:
  74:Core/Src/can.c ****     /**CAN GPIO Configuration
 171              		.loc 1 74 5 view .LVU46
  74:Core/Src/can.c ****     /**CAN GPIO Configuration
 172              		.loc 1 74 5 view .LVU47
 173 0034 5A69     		ldr	r2, [r3, #20]
 174 0036 42F40032 		orr	r2, r2, #131072
 175 003a 5A61     		str	r2, [r3, #20]
  74:Core/Src/can.c ****     /**CAN GPIO Configuration
 176              		.loc 1 74 5 view .LVU48
 177 003c 5B69     		ldr	r3, [r3, #20]
 178 003e 03F40033 		and	r3, r3, #131072
 179 0042 0293     		str	r3, [sp, #8]
  74:Core/Src/can.c ****     /**CAN GPIO Configuration
 180              		.loc 1 74 5 view .LVU49
 181 0044 029B     		ldr	r3, [sp, #8]
 182              	.LBE3:
  74:Core/Src/can.c ****     /**CAN GPIO Configuration
 183              		.loc 1 74 5 view .LVU50
  79:Core/Src/can.c ****     GPIO_InitStruct.Mode = GPIO_MODE_AF_PP;
 184              		.loc 1 79 5 view .LVU51
ARM GAS  /var/folders/bp/hbn4m0qx5z54srgsq53w67zh0000gr/T//ccHTsbES.s 			page 6


  79:Core/Src/can.c ****     GPIO_InitStruct.Mode = GPIO_MODE_AF_PP;
 185              		.loc 1 79 25 is_stmt 0 view .LVU52
 186 0046 4FF4C053 		mov	r3, #6144
 187 004a 0393     		str	r3, [sp, #12]
  80:Core/Src/can.c ****     GPIO_InitStruct.Pull = GPIO_NOPULL;
 188              		.loc 1 80 5 is_stmt 1 view .LVU53
  80:Core/Src/can.c ****     GPIO_InitStruct.Pull = GPIO_NOPULL;
 189              		.loc 1 80 26 is_stmt 0 view .LVU54
 190 004c 0223     		movs	r3, #2
 191 004e 0493     		str	r3, [sp, #16]
  81:Core/Src/can.c ****     GPIO_InitStruct.Speed = GPIO_SPEED_FREQ_HIGH;
 192              		.loc 1 81 5 is_stmt 1 view .LVU55
  82:Core/Src/can.c ****     GPIO_InitStruct.Alternate = GPIO_AF9_CAN;
 193              		.loc 1 82 5 view .LVU56
  82:Core/Src/can.c ****     GPIO_InitStruct.Alternate = GPIO_AF9_CAN;
 194              		.loc 1 82 27 is_stmt 0 view .LVU57
 195 0050 0323     		movs	r3, #3
 196 0052 0693     		str	r3, [sp, #24]
  83:Core/Src/can.c ****     HAL_GPIO_Init(GPIOA, &GPIO_InitStruct);
 197              		.loc 1 83 5 is_stmt 1 view .LVU58
  83:Core/Src/can.c ****     HAL_GPIO_Init(GPIOA, &GPIO_InitStruct);
 198              		.loc 1 83 31 is_stmt 0 view .LVU59
 199 0054 0923     		movs	r3, #9
 200 0056 0793     		str	r3, [sp, #28]
  84:Core/Src/can.c **** 
 201              		.loc 1 84 5 is_stmt 1 view .LVU60
 202 0058 03A9     		add	r1, sp, #12
 203 005a 4FF09040 		mov	r0, #1207959552
 204              	.LVL5:
  84:Core/Src/can.c **** 
 205              		.loc 1 84 5 is_stmt 0 view .LVU61
 206 005e FFF7FEFF 		bl	HAL_GPIO_Init
 207              	.LVL6:
 208              		.loc 1 90 1 view .LVU62
 209 0062 D9E7     		b	.L7
 210              	.L12:
 211              		.align	2
 212              	.L11:
 213 0064 00640040 		.word	1073767424
 214              		.cfi_endproc
 215              	.LFE124:
 217              		.section	.text.HAL_CAN_MspDeInit,"ax",%progbits
 218              		.align	1
 219              		.global	HAL_CAN_MspDeInit
 220              		.syntax unified
 221              		.thumb
 222              		.thumb_func
 223              		.fpu fpv4-sp-d16
 225              	HAL_CAN_MspDeInit:
 226              	.LVL7:
 227              	.LFB125:
  91:Core/Src/can.c **** 
  92:Core/Src/can.c **** void HAL_CAN_MspDeInit(CAN_HandleTypeDef* canHandle)
  93:Core/Src/can.c **** {
 228              		.loc 1 93 1 is_stmt 1 view -0
 229              		.cfi_startproc
 230              		@ args = 0, pretend = 0, frame = 0
ARM GAS  /var/folders/bp/hbn4m0qx5z54srgsq53w67zh0000gr/T//ccHTsbES.s 			page 7


 231              		@ frame_needed = 0, uses_anonymous_args = 0
 232              		.loc 1 93 1 is_stmt 0 view .LVU64
 233 0000 08B5     		push	{r3, lr}
 234              	.LCFI5:
 235              		.cfi_def_cfa_offset 8
 236              		.cfi_offset 3, -8
 237              		.cfi_offset 14, -4
  94:Core/Src/can.c **** 
  95:Core/Src/can.c ****   if(canHandle->Instance==CAN)
 238              		.loc 1 95 3 is_stmt 1 view .LVU65
 239              		.loc 1 95 15 is_stmt 0 view .LVU66
 240 0002 0268     		ldr	r2, [r0]
 241              		.loc 1 95 5 view .LVU67
 242 0004 074B     		ldr	r3, .L17
 243 0006 9A42     		cmp	r2, r3
 244 0008 00D0     		beq	.L16
 245              	.LVL8:
 246              	.L13:
  96:Core/Src/can.c ****   {
  97:Core/Src/can.c ****   /* USER CODE BEGIN CAN_MspDeInit 0 */
  98:Core/Src/can.c **** 
  99:Core/Src/can.c ****   /* USER CODE END CAN_MspDeInit 0 */
 100:Core/Src/can.c ****     /* Peripheral clock disable */
 101:Core/Src/can.c ****     __HAL_RCC_CAN1_CLK_DISABLE();
 102:Core/Src/can.c **** 
 103:Core/Src/can.c ****     /**CAN GPIO Configuration
 104:Core/Src/can.c ****     PA11     ------> CAN_RX
 105:Core/Src/can.c ****     PA12     ------> CAN_TX
 106:Core/Src/can.c ****     */
 107:Core/Src/can.c ****     HAL_GPIO_DeInit(GPIOA, GPIO_PIN_11|GPIO_PIN_12);
 108:Core/Src/can.c **** 
 109:Core/Src/can.c ****   /* USER CODE BEGIN CAN_MspDeInit 1 */
 110:Core/Src/can.c **** 
 111:Core/Src/can.c ****   /* USER CODE END CAN_MspDeInit 1 */
 112:Core/Src/can.c ****   }
 113:Core/Src/can.c **** }
 247              		.loc 1 113 1 view .LVU68
 248 000a 08BD     		pop	{r3, pc}
 249              	.LVL9:
 250              	.L16:
 101:Core/Src/can.c **** 
 251              		.loc 1 101 5 is_stmt 1 view .LVU69
 252 000c 064A     		ldr	r2, .L17+4
 253 000e D369     		ldr	r3, [r2, #28]
 254 0010 23F00073 		bic	r3, r3, #33554432
 255 0014 D361     		str	r3, [r2, #28]
 107:Core/Src/can.c **** 
 256              		.loc 1 107 5 view .LVU70
 257 0016 4FF4C051 		mov	r1, #6144
 258 001a 4FF09040 		mov	r0, #1207959552
 259              	.LVL10:
 107:Core/Src/can.c **** 
 260              		.loc 1 107 5 is_stmt 0 view .LVU71
 261 001e FFF7FEFF 		bl	HAL_GPIO_DeInit
 262              	.LVL11:
 263              		.loc 1 113 1 view .LVU72
 264 0022 F2E7     		b	.L13
ARM GAS  /var/folders/bp/hbn4m0qx5z54srgsq53w67zh0000gr/T//ccHTsbES.s 			page 8


 265              	.L18:
 266              		.align	2
 267              	.L17:
 268 0024 00640040 		.word	1073767424
 269 0028 00100240 		.word	1073876992
 270              		.cfi_endproc
 271              	.LFE125:
 273              		.global	hcan
 274              		.section	.bss.hcan,"aw",%nobits
 275              		.align	2
 276              		.set	.LANCHOR0,. + 0
 279              	hcan:
 280 0000 00000000 		.space	40
 280      00000000 
 280      00000000 
 280      00000000 
 280      00000000 
 281              		.text
 282              	.Letext0:
 283              		.file 2 "/opt/homebrew/Cellar/arm-none-eabi-gcc/10.3-2021.07/gcc/arm-none-eabi/include/machine/_de
 284              		.file 3 "/opt/homebrew/Cellar/arm-none-eabi-gcc/10.3-2021.07/gcc/arm-none-eabi/include/sys/_stdint
 285              		.file 4 "Drivers/CMSIS/Device/ST/STM32F3xx/Include/stm32f303x8.h"
 286              		.file 5 "Drivers/CMSIS/Device/ST/STM32F3xx/Include/stm32f3xx.h"
 287              		.file 6 "Drivers/STM32F3xx_HAL_Driver/Inc/stm32f3xx_hal_def.h"
 288              		.file 7 "Drivers/STM32F3xx_HAL_Driver/Inc/stm32f3xx_hal_gpio.h"
 289              		.file 8 "Drivers/STM32F3xx_HAL_Driver/Inc/stm32f3xx_hal_can.h"
 290              		.file 9 "Core/Inc/main.h"
 291              		.file 10 "Core/Inc/can.h"
ARM GAS  /var/folders/bp/hbn4m0qx5z54srgsq53w67zh0000gr/T//ccHTsbES.s 			page 9

