ARM GAS  /var/folders/bp/hbn4m0qx5z54srgsq53w67zh0000gr/T//ccFnrHoI.s 			page 1


   1              		.cpu cortex-m4
   2              		.eabi_attribute 27, 1
   3              		.eabi_attribute 28, 1
   4              		.eabi_attribute 20, 1
   5              		.eabi_attribute 21, 1
   6              		.eabi_attribute 23, 3
   7              		.eabi_attribute 24, 1
   8              		.eabi_attribute 25, 1
   9              		.eabi_attribute 26, 1
  10              		.eabi_attribute 30, 1
  11              		.eabi_attribute 34, 1
  12              		.eabi_attribute 18, 4
  13              		.file	"event_groups.c"
  14              		.text
  15              	.Ltext0:
  16              		.cfi_sections	.debug_frame
  17              		.section	.text.prvTestWaitCondition,"ax",%progbits
  18              		.align	1
  19              		.arch armv7e-m
  20              		.syntax unified
  21              		.thumb
  22              		.thumb_func
  23              		.fpu fpv4-sp-d16
  25              	prvTestWaitCondition:
  26              	.LVL0:
  27              	.LFB15:
  28              		.file 1 "Middlewares/Third_Party/FreeRTOS/Source/event_groups.c"
   1:Middlewares/Third_Party/FreeRTOS/Source/event_groups.c **** /*
   2:Middlewares/Third_Party/FreeRTOS/Source/event_groups.c ****  * FreeRTOS Kernel V10.0.1
   3:Middlewares/Third_Party/FreeRTOS/Source/event_groups.c ****  * Copyright (C) 2017 Amazon.com, Inc. or its affiliates.  All Rights Reserved.
   4:Middlewares/Third_Party/FreeRTOS/Source/event_groups.c ****  *
   5:Middlewares/Third_Party/FreeRTOS/Source/event_groups.c ****  * Permission is hereby granted, free of charge, to any person obtaining a copy of
   6:Middlewares/Third_Party/FreeRTOS/Source/event_groups.c ****  * this software and associated documentation files (the "Software"), to deal in
   7:Middlewares/Third_Party/FreeRTOS/Source/event_groups.c ****  * the Software without restriction, including without limitation the rights to
   8:Middlewares/Third_Party/FreeRTOS/Source/event_groups.c ****  * use, copy, modify, merge, publish, distribute, sublicense, and/or sell copies of
   9:Middlewares/Third_Party/FreeRTOS/Source/event_groups.c ****  * the Software, and to permit persons to whom the Software is furnished to do so,
  10:Middlewares/Third_Party/FreeRTOS/Source/event_groups.c ****  * subject to the following conditions:
  11:Middlewares/Third_Party/FreeRTOS/Source/event_groups.c ****  *
  12:Middlewares/Third_Party/FreeRTOS/Source/event_groups.c ****  * The above copyright notice and this permission notice shall be included in all
  13:Middlewares/Third_Party/FreeRTOS/Source/event_groups.c ****  * copies or substantial portions of the Software.
  14:Middlewares/Third_Party/FreeRTOS/Source/event_groups.c ****  *
  15:Middlewares/Third_Party/FreeRTOS/Source/event_groups.c ****  * THE SOFTWARE IS PROVIDED "AS IS", WITHOUT WARRANTY OF ANY KIND, EXPRESS OR
  16:Middlewares/Third_Party/FreeRTOS/Source/event_groups.c ****  * IMPLIED, INCLUDING BUT NOT LIMITED TO THE WARRANTIES OF MERCHANTABILITY, FITNESS
  17:Middlewares/Third_Party/FreeRTOS/Source/event_groups.c ****  * FOR A PARTICULAR PURPOSE AND NONINFRINGEMENT. IN NO EVENT SHALL THE AUTHORS OR
  18:Middlewares/Third_Party/FreeRTOS/Source/event_groups.c ****  * COPYRIGHT HOLDERS BE LIABLE FOR ANY CLAIM, DAMAGES OR OTHER LIABILITY, WHETHER
  19:Middlewares/Third_Party/FreeRTOS/Source/event_groups.c ****  * IN AN ACTION OF CONTRACT, TORT OR OTHERWISE, ARISING FROM, OUT OF OR IN
  20:Middlewares/Third_Party/FreeRTOS/Source/event_groups.c ****  * CONNECTION WITH THE SOFTWARE OR THE USE OR OTHER DEALINGS IN THE SOFTWARE.
  21:Middlewares/Third_Party/FreeRTOS/Source/event_groups.c ****  *
  22:Middlewares/Third_Party/FreeRTOS/Source/event_groups.c ****  * http://www.FreeRTOS.org
  23:Middlewares/Third_Party/FreeRTOS/Source/event_groups.c ****  * http://aws.amazon.com/freertos
  24:Middlewares/Third_Party/FreeRTOS/Source/event_groups.c ****  *
  25:Middlewares/Third_Party/FreeRTOS/Source/event_groups.c ****  * 1 tab == 4 spaces!
  26:Middlewares/Third_Party/FreeRTOS/Source/event_groups.c ****  */
  27:Middlewares/Third_Party/FreeRTOS/Source/event_groups.c **** 
  28:Middlewares/Third_Party/FreeRTOS/Source/event_groups.c **** /* Standard includes. */
  29:Middlewares/Third_Party/FreeRTOS/Source/event_groups.c **** #include <stdlib.h>
  30:Middlewares/Third_Party/FreeRTOS/Source/event_groups.c **** 
ARM GAS  /var/folders/bp/hbn4m0qx5z54srgsq53w67zh0000gr/T//ccFnrHoI.s 			page 2


  31:Middlewares/Third_Party/FreeRTOS/Source/event_groups.c **** /* Defining MPU_WRAPPERS_INCLUDED_FROM_API_FILE prevents task.h from redefining
  32:Middlewares/Third_Party/FreeRTOS/Source/event_groups.c **** all the API functions to use the MPU wrappers.  That should only be done when
  33:Middlewares/Third_Party/FreeRTOS/Source/event_groups.c **** task.h is included from an application file. */
  34:Middlewares/Third_Party/FreeRTOS/Source/event_groups.c **** #define MPU_WRAPPERS_INCLUDED_FROM_API_FILE
  35:Middlewares/Third_Party/FreeRTOS/Source/event_groups.c **** 
  36:Middlewares/Third_Party/FreeRTOS/Source/event_groups.c **** /* FreeRTOS includes. */
  37:Middlewares/Third_Party/FreeRTOS/Source/event_groups.c **** #include "FreeRTOS.h"
  38:Middlewares/Third_Party/FreeRTOS/Source/event_groups.c **** #include "task.h"
  39:Middlewares/Third_Party/FreeRTOS/Source/event_groups.c **** #include "timers.h"
  40:Middlewares/Third_Party/FreeRTOS/Source/event_groups.c **** #include "event_groups.h"
  41:Middlewares/Third_Party/FreeRTOS/Source/event_groups.c **** 
  42:Middlewares/Third_Party/FreeRTOS/Source/event_groups.c **** /* Lint e961 and e750 are suppressed as a MISRA exception justified because the
  43:Middlewares/Third_Party/FreeRTOS/Source/event_groups.c **** MPU ports require MPU_WRAPPERS_INCLUDED_FROM_API_FILE to be defined for the
  44:Middlewares/Third_Party/FreeRTOS/Source/event_groups.c **** header files above, but not in this file, in order to generate the correct
  45:Middlewares/Third_Party/FreeRTOS/Source/event_groups.c **** privileged Vs unprivileged linkage and placement. */
  46:Middlewares/Third_Party/FreeRTOS/Source/event_groups.c **** #undef MPU_WRAPPERS_INCLUDED_FROM_API_FILE /*lint !e961 !e750. */
  47:Middlewares/Third_Party/FreeRTOS/Source/event_groups.c **** 
  48:Middlewares/Third_Party/FreeRTOS/Source/event_groups.c **** /* The following bit fields convey control information in a task's event list
  49:Middlewares/Third_Party/FreeRTOS/Source/event_groups.c **** item value.  It is important they don't clash with the
  50:Middlewares/Third_Party/FreeRTOS/Source/event_groups.c **** taskEVENT_LIST_ITEM_VALUE_IN_USE definition. */
  51:Middlewares/Third_Party/FreeRTOS/Source/event_groups.c **** #if configUSE_16_BIT_TICKS == 1
  52:Middlewares/Third_Party/FreeRTOS/Source/event_groups.c **** 	#define eventCLEAR_EVENTS_ON_EXIT_BIT	0x0100U
  53:Middlewares/Third_Party/FreeRTOS/Source/event_groups.c **** 	#define eventUNBLOCKED_DUE_TO_BIT_SET	0x0200U
  54:Middlewares/Third_Party/FreeRTOS/Source/event_groups.c **** 	#define eventWAIT_FOR_ALL_BITS			0x0400U
  55:Middlewares/Third_Party/FreeRTOS/Source/event_groups.c **** 	#define eventEVENT_BITS_CONTROL_BYTES	0xff00U
  56:Middlewares/Third_Party/FreeRTOS/Source/event_groups.c **** #else
  57:Middlewares/Third_Party/FreeRTOS/Source/event_groups.c **** 	#define eventCLEAR_EVENTS_ON_EXIT_BIT	0x01000000UL
  58:Middlewares/Third_Party/FreeRTOS/Source/event_groups.c **** 	#define eventUNBLOCKED_DUE_TO_BIT_SET	0x02000000UL
  59:Middlewares/Third_Party/FreeRTOS/Source/event_groups.c **** 	#define eventWAIT_FOR_ALL_BITS			0x04000000UL
  60:Middlewares/Third_Party/FreeRTOS/Source/event_groups.c **** 	#define eventEVENT_BITS_CONTROL_BYTES	0xff000000UL
  61:Middlewares/Third_Party/FreeRTOS/Source/event_groups.c **** #endif
  62:Middlewares/Third_Party/FreeRTOS/Source/event_groups.c **** 
  63:Middlewares/Third_Party/FreeRTOS/Source/event_groups.c **** typedef struct xEventGroupDefinition
  64:Middlewares/Third_Party/FreeRTOS/Source/event_groups.c **** {
  65:Middlewares/Third_Party/FreeRTOS/Source/event_groups.c **** 	EventBits_t uxEventBits;
  66:Middlewares/Third_Party/FreeRTOS/Source/event_groups.c **** 	List_t xTasksWaitingForBits;		/*< List of tasks waiting for a bit to be set. */
  67:Middlewares/Third_Party/FreeRTOS/Source/event_groups.c **** 
  68:Middlewares/Third_Party/FreeRTOS/Source/event_groups.c **** 	#if( configUSE_TRACE_FACILITY == 1 )
  69:Middlewares/Third_Party/FreeRTOS/Source/event_groups.c **** 		UBaseType_t uxEventGroupNumber;
  70:Middlewares/Third_Party/FreeRTOS/Source/event_groups.c **** 	#endif
  71:Middlewares/Third_Party/FreeRTOS/Source/event_groups.c **** 
  72:Middlewares/Third_Party/FreeRTOS/Source/event_groups.c **** 	#if( ( configSUPPORT_STATIC_ALLOCATION == 1 ) && ( configSUPPORT_DYNAMIC_ALLOCATION == 1 ) )
  73:Middlewares/Third_Party/FreeRTOS/Source/event_groups.c **** 		uint8_t ucStaticallyAllocated; /*< Set to pdTRUE if the event group is statically allocated to en
  74:Middlewares/Third_Party/FreeRTOS/Source/event_groups.c **** 	#endif
  75:Middlewares/Third_Party/FreeRTOS/Source/event_groups.c **** } EventGroup_t;
  76:Middlewares/Third_Party/FreeRTOS/Source/event_groups.c **** 
  77:Middlewares/Third_Party/FreeRTOS/Source/event_groups.c **** /*-----------------------------------------------------------*/
  78:Middlewares/Third_Party/FreeRTOS/Source/event_groups.c **** 
  79:Middlewares/Third_Party/FreeRTOS/Source/event_groups.c **** /*
  80:Middlewares/Third_Party/FreeRTOS/Source/event_groups.c ****  * Test the bits set in uxCurrentEventBits to see if the wait condition is met.
  81:Middlewares/Third_Party/FreeRTOS/Source/event_groups.c ****  * The wait condition is defined by xWaitForAllBits.  If xWaitForAllBits is
  82:Middlewares/Third_Party/FreeRTOS/Source/event_groups.c ****  * pdTRUE then the wait condition is met if all the bits set in uxBitsToWaitFor
  83:Middlewares/Third_Party/FreeRTOS/Source/event_groups.c ****  * are also set in uxCurrentEventBits.  If xWaitForAllBits is pdFALSE then the
  84:Middlewares/Third_Party/FreeRTOS/Source/event_groups.c ****  * wait condition is met if any of the bits set in uxBitsToWait for are also set
  85:Middlewares/Third_Party/FreeRTOS/Source/event_groups.c ****  * in uxCurrentEventBits.
  86:Middlewares/Third_Party/FreeRTOS/Source/event_groups.c ****  */
  87:Middlewares/Third_Party/FreeRTOS/Source/event_groups.c **** static BaseType_t prvTestWaitCondition( const EventBits_t uxCurrentEventBits, const EventBits_t uxB
ARM GAS  /var/folders/bp/hbn4m0qx5z54srgsq53w67zh0000gr/T//ccFnrHoI.s 			page 3


  88:Middlewares/Third_Party/FreeRTOS/Source/event_groups.c **** 
  89:Middlewares/Third_Party/FreeRTOS/Source/event_groups.c **** /*-----------------------------------------------------------*/
  90:Middlewares/Third_Party/FreeRTOS/Source/event_groups.c **** 
  91:Middlewares/Third_Party/FreeRTOS/Source/event_groups.c **** #if( configSUPPORT_STATIC_ALLOCATION == 1 )
  92:Middlewares/Third_Party/FreeRTOS/Source/event_groups.c **** 
  93:Middlewares/Third_Party/FreeRTOS/Source/event_groups.c **** 	EventGroupHandle_t xEventGroupCreateStatic( StaticEventGroup_t *pxEventGroupBuffer )
  94:Middlewares/Third_Party/FreeRTOS/Source/event_groups.c **** 	{
  95:Middlewares/Third_Party/FreeRTOS/Source/event_groups.c **** 	EventGroup_t *pxEventBits;
  96:Middlewares/Third_Party/FreeRTOS/Source/event_groups.c **** 
  97:Middlewares/Third_Party/FreeRTOS/Source/event_groups.c **** 		/* A StaticEventGroup_t object must be provided. */
  98:Middlewares/Third_Party/FreeRTOS/Source/event_groups.c **** 		configASSERT( pxEventGroupBuffer );
  99:Middlewares/Third_Party/FreeRTOS/Source/event_groups.c **** 
 100:Middlewares/Third_Party/FreeRTOS/Source/event_groups.c **** 		#if( configASSERT_DEFINED == 1 )
 101:Middlewares/Third_Party/FreeRTOS/Source/event_groups.c **** 		{
 102:Middlewares/Third_Party/FreeRTOS/Source/event_groups.c **** 			/* Sanity check that the size of the structure used to declare a
 103:Middlewares/Third_Party/FreeRTOS/Source/event_groups.c **** 			variable of type StaticEventGroup_t equals the size of the real
 104:Middlewares/Third_Party/FreeRTOS/Source/event_groups.c **** 			event group structure. */
 105:Middlewares/Third_Party/FreeRTOS/Source/event_groups.c **** 			volatile size_t xSize = sizeof( StaticEventGroup_t );
 106:Middlewares/Third_Party/FreeRTOS/Source/event_groups.c **** 			configASSERT( xSize == sizeof( EventGroup_t ) );
 107:Middlewares/Third_Party/FreeRTOS/Source/event_groups.c **** 		}
 108:Middlewares/Third_Party/FreeRTOS/Source/event_groups.c **** 		#endif /* configASSERT_DEFINED */
 109:Middlewares/Third_Party/FreeRTOS/Source/event_groups.c **** 
 110:Middlewares/Third_Party/FreeRTOS/Source/event_groups.c **** 		/* The user has provided a statically allocated event group - use it. */
 111:Middlewares/Third_Party/FreeRTOS/Source/event_groups.c **** 		pxEventBits = ( EventGroup_t * ) pxEventGroupBuffer; /*lint !e740 EventGroup_t and StaticEventGro
 112:Middlewares/Third_Party/FreeRTOS/Source/event_groups.c **** 
 113:Middlewares/Third_Party/FreeRTOS/Source/event_groups.c **** 		if( pxEventBits != NULL )
 114:Middlewares/Third_Party/FreeRTOS/Source/event_groups.c **** 		{
 115:Middlewares/Third_Party/FreeRTOS/Source/event_groups.c **** 			pxEventBits->uxEventBits = 0;
 116:Middlewares/Third_Party/FreeRTOS/Source/event_groups.c **** 			vListInitialise( &( pxEventBits->xTasksWaitingForBits ) );
 117:Middlewares/Third_Party/FreeRTOS/Source/event_groups.c **** 
 118:Middlewares/Third_Party/FreeRTOS/Source/event_groups.c **** 			#if( configSUPPORT_DYNAMIC_ALLOCATION == 1 )
 119:Middlewares/Third_Party/FreeRTOS/Source/event_groups.c **** 			{
 120:Middlewares/Third_Party/FreeRTOS/Source/event_groups.c **** 				/* Both static and dynamic allocation can be used, so note that
 121:Middlewares/Third_Party/FreeRTOS/Source/event_groups.c **** 				this event group was created statically in case the event group
 122:Middlewares/Third_Party/FreeRTOS/Source/event_groups.c **** 				is later deleted. */
 123:Middlewares/Third_Party/FreeRTOS/Source/event_groups.c **** 				pxEventBits->ucStaticallyAllocated = pdTRUE;
 124:Middlewares/Third_Party/FreeRTOS/Source/event_groups.c **** 			}
 125:Middlewares/Third_Party/FreeRTOS/Source/event_groups.c **** 			#endif /* configSUPPORT_DYNAMIC_ALLOCATION */
 126:Middlewares/Third_Party/FreeRTOS/Source/event_groups.c **** 
 127:Middlewares/Third_Party/FreeRTOS/Source/event_groups.c **** 			traceEVENT_GROUP_CREATE( pxEventBits );
 128:Middlewares/Third_Party/FreeRTOS/Source/event_groups.c **** 		}
 129:Middlewares/Third_Party/FreeRTOS/Source/event_groups.c **** 		else
 130:Middlewares/Third_Party/FreeRTOS/Source/event_groups.c **** 		{
 131:Middlewares/Third_Party/FreeRTOS/Source/event_groups.c **** 			traceEVENT_GROUP_CREATE_FAILED();
 132:Middlewares/Third_Party/FreeRTOS/Source/event_groups.c **** 		}
 133:Middlewares/Third_Party/FreeRTOS/Source/event_groups.c **** 
 134:Middlewares/Third_Party/FreeRTOS/Source/event_groups.c **** 		return ( EventGroupHandle_t ) pxEventBits;
 135:Middlewares/Third_Party/FreeRTOS/Source/event_groups.c **** 	}
 136:Middlewares/Third_Party/FreeRTOS/Source/event_groups.c **** 
 137:Middlewares/Third_Party/FreeRTOS/Source/event_groups.c **** #endif /* configSUPPORT_STATIC_ALLOCATION */
 138:Middlewares/Third_Party/FreeRTOS/Source/event_groups.c **** /*-----------------------------------------------------------*/
 139:Middlewares/Third_Party/FreeRTOS/Source/event_groups.c **** 
 140:Middlewares/Third_Party/FreeRTOS/Source/event_groups.c **** #if( configSUPPORT_DYNAMIC_ALLOCATION == 1 )
 141:Middlewares/Third_Party/FreeRTOS/Source/event_groups.c **** 
 142:Middlewares/Third_Party/FreeRTOS/Source/event_groups.c **** 	EventGroupHandle_t xEventGroupCreate( void )
 143:Middlewares/Third_Party/FreeRTOS/Source/event_groups.c **** 	{
 144:Middlewares/Third_Party/FreeRTOS/Source/event_groups.c **** 	EventGroup_t *pxEventBits;
ARM GAS  /var/folders/bp/hbn4m0qx5z54srgsq53w67zh0000gr/T//ccFnrHoI.s 			page 4


 145:Middlewares/Third_Party/FreeRTOS/Source/event_groups.c **** 
 146:Middlewares/Third_Party/FreeRTOS/Source/event_groups.c **** 		/* Allocate the event group. */
 147:Middlewares/Third_Party/FreeRTOS/Source/event_groups.c **** 		pxEventBits = ( EventGroup_t * ) pvPortMalloc( sizeof( EventGroup_t ) );
 148:Middlewares/Third_Party/FreeRTOS/Source/event_groups.c **** 
 149:Middlewares/Third_Party/FreeRTOS/Source/event_groups.c **** 		if( pxEventBits != NULL )
 150:Middlewares/Third_Party/FreeRTOS/Source/event_groups.c **** 		{
 151:Middlewares/Third_Party/FreeRTOS/Source/event_groups.c **** 			pxEventBits->uxEventBits = 0;
 152:Middlewares/Third_Party/FreeRTOS/Source/event_groups.c **** 			vListInitialise( &( pxEventBits->xTasksWaitingForBits ) );
 153:Middlewares/Third_Party/FreeRTOS/Source/event_groups.c **** 
 154:Middlewares/Third_Party/FreeRTOS/Source/event_groups.c **** 			#if( configSUPPORT_STATIC_ALLOCATION == 1 )
 155:Middlewares/Third_Party/FreeRTOS/Source/event_groups.c **** 			{
 156:Middlewares/Third_Party/FreeRTOS/Source/event_groups.c **** 				/* Both static and dynamic allocation can be used, so note this
 157:Middlewares/Third_Party/FreeRTOS/Source/event_groups.c **** 				event group was allocated statically in case the event group is
 158:Middlewares/Third_Party/FreeRTOS/Source/event_groups.c **** 				later deleted. */
 159:Middlewares/Third_Party/FreeRTOS/Source/event_groups.c **** 				pxEventBits->ucStaticallyAllocated = pdFALSE;
 160:Middlewares/Third_Party/FreeRTOS/Source/event_groups.c **** 			}
 161:Middlewares/Third_Party/FreeRTOS/Source/event_groups.c **** 			#endif /* configSUPPORT_STATIC_ALLOCATION */
 162:Middlewares/Third_Party/FreeRTOS/Source/event_groups.c **** 
 163:Middlewares/Third_Party/FreeRTOS/Source/event_groups.c **** 			traceEVENT_GROUP_CREATE( pxEventBits );
 164:Middlewares/Third_Party/FreeRTOS/Source/event_groups.c **** 		}
 165:Middlewares/Third_Party/FreeRTOS/Source/event_groups.c **** 		else
 166:Middlewares/Third_Party/FreeRTOS/Source/event_groups.c **** 		{
 167:Middlewares/Third_Party/FreeRTOS/Source/event_groups.c **** 			traceEVENT_GROUP_CREATE_FAILED();
 168:Middlewares/Third_Party/FreeRTOS/Source/event_groups.c **** 		}
 169:Middlewares/Third_Party/FreeRTOS/Source/event_groups.c **** 
 170:Middlewares/Third_Party/FreeRTOS/Source/event_groups.c **** 		return ( EventGroupHandle_t ) pxEventBits;
 171:Middlewares/Third_Party/FreeRTOS/Source/event_groups.c **** 	}
 172:Middlewares/Third_Party/FreeRTOS/Source/event_groups.c **** 
 173:Middlewares/Third_Party/FreeRTOS/Source/event_groups.c **** #endif /* configSUPPORT_DYNAMIC_ALLOCATION */
 174:Middlewares/Third_Party/FreeRTOS/Source/event_groups.c **** /*-----------------------------------------------------------*/
 175:Middlewares/Third_Party/FreeRTOS/Source/event_groups.c **** 
 176:Middlewares/Third_Party/FreeRTOS/Source/event_groups.c **** EventBits_t xEventGroupSync( EventGroupHandle_t xEventGroup, const EventBits_t uxBitsToSet, const E
 177:Middlewares/Third_Party/FreeRTOS/Source/event_groups.c **** {
 178:Middlewares/Third_Party/FreeRTOS/Source/event_groups.c **** EventBits_t uxOriginalBitValue, uxReturn;
 179:Middlewares/Third_Party/FreeRTOS/Source/event_groups.c **** EventGroup_t *pxEventBits = ( EventGroup_t * ) xEventGroup;
 180:Middlewares/Third_Party/FreeRTOS/Source/event_groups.c **** BaseType_t xAlreadyYielded;
 181:Middlewares/Third_Party/FreeRTOS/Source/event_groups.c **** BaseType_t xTimeoutOccurred = pdFALSE;
 182:Middlewares/Third_Party/FreeRTOS/Source/event_groups.c **** 
 183:Middlewares/Third_Party/FreeRTOS/Source/event_groups.c **** 	configASSERT( ( uxBitsToWaitFor & eventEVENT_BITS_CONTROL_BYTES ) == 0 );
 184:Middlewares/Third_Party/FreeRTOS/Source/event_groups.c **** 	configASSERT( uxBitsToWaitFor != 0 );
 185:Middlewares/Third_Party/FreeRTOS/Source/event_groups.c **** 	#if ( ( INCLUDE_xTaskGetSchedulerState == 1 ) || ( configUSE_TIMERS == 1 ) )
 186:Middlewares/Third_Party/FreeRTOS/Source/event_groups.c **** 	{
 187:Middlewares/Third_Party/FreeRTOS/Source/event_groups.c **** 		configASSERT( !( ( xTaskGetSchedulerState() == taskSCHEDULER_SUSPENDED ) && ( xTicksToWait != 0 )
 188:Middlewares/Third_Party/FreeRTOS/Source/event_groups.c **** 	}
 189:Middlewares/Third_Party/FreeRTOS/Source/event_groups.c **** 	#endif
 190:Middlewares/Third_Party/FreeRTOS/Source/event_groups.c **** 
 191:Middlewares/Third_Party/FreeRTOS/Source/event_groups.c **** 	vTaskSuspendAll();
 192:Middlewares/Third_Party/FreeRTOS/Source/event_groups.c **** 	{
 193:Middlewares/Third_Party/FreeRTOS/Source/event_groups.c **** 		uxOriginalBitValue = pxEventBits->uxEventBits;
 194:Middlewares/Third_Party/FreeRTOS/Source/event_groups.c **** 
 195:Middlewares/Third_Party/FreeRTOS/Source/event_groups.c **** 		( void ) xEventGroupSetBits( xEventGroup, uxBitsToSet );
 196:Middlewares/Third_Party/FreeRTOS/Source/event_groups.c **** 
 197:Middlewares/Third_Party/FreeRTOS/Source/event_groups.c **** 		if( ( ( uxOriginalBitValue | uxBitsToSet ) & uxBitsToWaitFor ) == uxBitsToWaitFor )
 198:Middlewares/Third_Party/FreeRTOS/Source/event_groups.c **** 		{
 199:Middlewares/Third_Party/FreeRTOS/Source/event_groups.c **** 			/* All the rendezvous bits are now set - no need to block. */
 200:Middlewares/Third_Party/FreeRTOS/Source/event_groups.c **** 			uxReturn = ( uxOriginalBitValue | uxBitsToSet );
 201:Middlewares/Third_Party/FreeRTOS/Source/event_groups.c **** 
ARM GAS  /var/folders/bp/hbn4m0qx5z54srgsq53w67zh0000gr/T//ccFnrHoI.s 			page 5


 202:Middlewares/Third_Party/FreeRTOS/Source/event_groups.c **** 			/* Rendezvous always clear the bits.  They will have been cleared
 203:Middlewares/Third_Party/FreeRTOS/Source/event_groups.c **** 			already unless this is the only task in the rendezvous. */
 204:Middlewares/Third_Party/FreeRTOS/Source/event_groups.c **** 			pxEventBits->uxEventBits &= ~uxBitsToWaitFor;
 205:Middlewares/Third_Party/FreeRTOS/Source/event_groups.c **** 
 206:Middlewares/Third_Party/FreeRTOS/Source/event_groups.c **** 			xTicksToWait = 0;
 207:Middlewares/Third_Party/FreeRTOS/Source/event_groups.c **** 		}
 208:Middlewares/Third_Party/FreeRTOS/Source/event_groups.c **** 		else
 209:Middlewares/Third_Party/FreeRTOS/Source/event_groups.c **** 		{
 210:Middlewares/Third_Party/FreeRTOS/Source/event_groups.c **** 			if( xTicksToWait != ( TickType_t ) 0 )
 211:Middlewares/Third_Party/FreeRTOS/Source/event_groups.c **** 			{
 212:Middlewares/Third_Party/FreeRTOS/Source/event_groups.c **** 				traceEVENT_GROUP_SYNC_BLOCK( xEventGroup, uxBitsToSet, uxBitsToWaitFor );
 213:Middlewares/Third_Party/FreeRTOS/Source/event_groups.c **** 
 214:Middlewares/Third_Party/FreeRTOS/Source/event_groups.c **** 				/* Store the bits that the calling task is waiting for in the
 215:Middlewares/Third_Party/FreeRTOS/Source/event_groups.c **** 				task's event list item so the kernel knows when a match is
 216:Middlewares/Third_Party/FreeRTOS/Source/event_groups.c **** 				found.  Then enter the blocked state. */
 217:Middlewares/Third_Party/FreeRTOS/Source/event_groups.c **** 				vTaskPlaceOnUnorderedEventList( &( pxEventBits->xTasksWaitingForBits ), ( uxBitsToWaitFor | eve
 218:Middlewares/Third_Party/FreeRTOS/Source/event_groups.c **** 
 219:Middlewares/Third_Party/FreeRTOS/Source/event_groups.c **** 				/* This assignment is obsolete as uxReturn will get set after
 220:Middlewares/Third_Party/FreeRTOS/Source/event_groups.c **** 				the task unblocks, but some compilers mistakenly generate a
 221:Middlewares/Third_Party/FreeRTOS/Source/event_groups.c **** 				warning about uxReturn being returned without being set if the
 222:Middlewares/Third_Party/FreeRTOS/Source/event_groups.c **** 				assignment is omitted. */
 223:Middlewares/Third_Party/FreeRTOS/Source/event_groups.c **** 				uxReturn = 0;
 224:Middlewares/Third_Party/FreeRTOS/Source/event_groups.c **** 			}
 225:Middlewares/Third_Party/FreeRTOS/Source/event_groups.c **** 			else
 226:Middlewares/Third_Party/FreeRTOS/Source/event_groups.c **** 			{
 227:Middlewares/Third_Party/FreeRTOS/Source/event_groups.c **** 				/* The rendezvous bits were not set, but no block time was
 228:Middlewares/Third_Party/FreeRTOS/Source/event_groups.c **** 				specified - just return the current event bit value. */
 229:Middlewares/Third_Party/FreeRTOS/Source/event_groups.c **** 				uxReturn = pxEventBits->uxEventBits;
 230:Middlewares/Third_Party/FreeRTOS/Source/event_groups.c **** 				xTimeoutOccurred = pdTRUE;
 231:Middlewares/Third_Party/FreeRTOS/Source/event_groups.c **** 			}
 232:Middlewares/Third_Party/FreeRTOS/Source/event_groups.c **** 		}
 233:Middlewares/Third_Party/FreeRTOS/Source/event_groups.c **** 	}
 234:Middlewares/Third_Party/FreeRTOS/Source/event_groups.c **** 	xAlreadyYielded = xTaskResumeAll();
 235:Middlewares/Third_Party/FreeRTOS/Source/event_groups.c **** 
 236:Middlewares/Third_Party/FreeRTOS/Source/event_groups.c **** 	if( xTicksToWait != ( TickType_t ) 0 )
 237:Middlewares/Third_Party/FreeRTOS/Source/event_groups.c **** 	{
 238:Middlewares/Third_Party/FreeRTOS/Source/event_groups.c **** 		if( xAlreadyYielded == pdFALSE )
 239:Middlewares/Third_Party/FreeRTOS/Source/event_groups.c **** 		{
 240:Middlewares/Third_Party/FreeRTOS/Source/event_groups.c **** 			portYIELD_WITHIN_API();
 241:Middlewares/Third_Party/FreeRTOS/Source/event_groups.c **** 		}
 242:Middlewares/Third_Party/FreeRTOS/Source/event_groups.c **** 		else
 243:Middlewares/Third_Party/FreeRTOS/Source/event_groups.c **** 		{
 244:Middlewares/Third_Party/FreeRTOS/Source/event_groups.c **** 			mtCOVERAGE_TEST_MARKER();
 245:Middlewares/Third_Party/FreeRTOS/Source/event_groups.c **** 		}
 246:Middlewares/Third_Party/FreeRTOS/Source/event_groups.c **** 
 247:Middlewares/Third_Party/FreeRTOS/Source/event_groups.c **** 		/* The task blocked to wait for its required bits to be set - at this
 248:Middlewares/Third_Party/FreeRTOS/Source/event_groups.c **** 		point either the required bits were set or the block time expired.  If
 249:Middlewares/Third_Party/FreeRTOS/Source/event_groups.c **** 		the required bits were set they will have been stored in the task's
 250:Middlewares/Third_Party/FreeRTOS/Source/event_groups.c **** 		event list item, and they should now be retrieved then cleared. */
 251:Middlewares/Third_Party/FreeRTOS/Source/event_groups.c **** 		uxReturn = uxTaskResetEventItemValue();
 252:Middlewares/Third_Party/FreeRTOS/Source/event_groups.c **** 
 253:Middlewares/Third_Party/FreeRTOS/Source/event_groups.c **** 		if( ( uxReturn & eventUNBLOCKED_DUE_TO_BIT_SET ) == ( EventBits_t ) 0 )
 254:Middlewares/Third_Party/FreeRTOS/Source/event_groups.c **** 		{
 255:Middlewares/Third_Party/FreeRTOS/Source/event_groups.c **** 			/* The task timed out, just return the current event bit value. */
 256:Middlewares/Third_Party/FreeRTOS/Source/event_groups.c **** 			taskENTER_CRITICAL();
 257:Middlewares/Third_Party/FreeRTOS/Source/event_groups.c **** 			{
 258:Middlewares/Third_Party/FreeRTOS/Source/event_groups.c **** 				uxReturn = pxEventBits->uxEventBits;
ARM GAS  /var/folders/bp/hbn4m0qx5z54srgsq53w67zh0000gr/T//ccFnrHoI.s 			page 6


 259:Middlewares/Third_Party/FreeRTOS/Source/event_groups.c **** 
 260:Middlewares/Third_Party/FreeRTOS/Source/event_groups.c **** 				/* Although the task got here because it timed out before the
 261:Middlewares/Third_Party/FreeRTOS/Source/event_groups.c **** 				bits it was waiting for were set, it is possible that since it
 262:Middlewares/Third_Party/FreeRTOS/Source/event_groups.c **** 				unblocked another task has set the bits.  If this is the case
 263:Middlewares/Third_Party/FreeRTOS/Source/event_groups.c **** 				then it needs to clear the bits before exiting. */
 264:Middlewares/Third_Party/FreeRTOS/Source/event_groups.c **** 				if( ( uxReturn & uxBitsToWaitFor ) == uxBitsToWaitFor )
 265:Middlewares/Third_Party/FreeRTOS/Source/event_groups.c **** 				{
 266:Middlewares/Third_Party/FreeRTOS/Source/event_groups.c **** 					pxEventBits->uxEventBits &= ~uxBitsToWaitFor;
 267:Middlewares/Third_Party/FreeRTOS/Source/event_groups.c **** 				}
 268:Middlewares/Third_Party/FreeRTOS/Source/event_groups.c **** 				else
 269:Middlewares/Third_Party/FreeRTOS/Source/event_groups.c **** 				{
 270:Middlewares/Third_Party/FreeRTOS/Source/event_groups.c **** 					mtCOVERAGE_TEST_MARKER();
 271:Middlewares/Third_Party/FreeRTOS/Source/event_groups.c **** 				}
 272:Middlewares/Third_Party/FreeRTOS/Source/event_groups.c **** 			}
 273:Middlewares/Third_Party/FreeRTOS/Source/event_groups.c **** 			taskEXIT_CRITICAL();
 274:Middlewares/Third_Party/FreeRTOS/Source/event_groups.c **** 
 275:Middlewares/Third_Party/FreeRTOS/Source/event_groups.c **** 			xTimeoutOccurred = pdTRUE;
 276:Middlewares/Third_Party/FreeRTOS/Source/event_groups.c **** 		}
 277:Middlewares/Third_Party/FreeRTOS/Source/event_groups.c **** 		else
 278:Middlewares/Third_Party/FreeRTOS/Source/event_groups.c **** 		{
 279:Middlewares/Third_Party/FreeRTOS/Source/event_groups.c **** 			/* The task unblocked because the bits were set. */
 280:Middlewares/Third_Party/FreeRTOS/Source/event_groups.c **** 		}
 281:Middlewares/Third_Party/FreeRTOS/Source/event_groups.c **** 
 282:Middlewares/Third_Party/FreeRTOS/Source/event_groups.c **** 		/* Control bits might be set as the task had blocked should not be
 283:Middlewares/Third_Party/FreeRTOS/Source/event_groups.c **** 		returned. */
 284:Middlewares/Third_Party/FreeRTOS/Source/event_groups.c **** 		uxReturn &= ~eventEVENT_BITS_CONTROL_BYTES;
 285:Middlewares/Third_Party/FreeRTOS/Source/event_groups.c **** 	}
 286:Middlewares/Third_Party/FreeRTOS/Source/event_groups.c **** 
 287:Middlewares/Third_Party/FreeRTOS/Source/event_groups.c **** 	traceEVENT_GROUP_SYNC_END( xEventGroup, uxBitsToSet, uxBitsToWaitFor, xTimeoutOccurred );
 288:Middlewares/Third_Party/FreeRTOS/Source/event_groups.c **** 
 289:Middlewares/Third_Party/FreeRTOS/Source/event_groups.c **** 	/* Prevent compiler warnings when trace macros are not used. */
 290:Middlewares/Third_Party/FreeRTOS/Source/event_groups.c **** 	( void ) xTimeoutOccurred;
 291:Middlewares/Third_Party/FreeRTOS/Source/event_groups.c **** 
 292:Middlewares/Third_Party/FreeRTOS/Source/event_groups.c **** 	return uxReturn;
 293:Middlewares/Third_Party/FreeRTOS/Source/event_groups.c **** }
 294:Middlewares/Third_Party/FreeRTOS/Source/event_groups.c **** /*-----------------------------------------------------------*/
 295:Middlewares/Third_Party/FreeRTOS/Source/event_groups.c **** 
 296:Middlewares/Third_Party/FreeRTOS/Source/event_groups.c **** EventBits_t xEventGroupWaitBits( EventGroupHandle_t xEventGroup, const EventBits_t uxBitsToWaitFor,
 297:Middlewares/Third_Party/FreeRTOS/Source/event_groups.c **** {
 298:Middlewares/Third_Party/FreeRTOS/Source/event_groups.c **** EventGroup_t *pxEventBits = ( EventGroup_t * ) xEventGroup;
 299:Middlewares/Third_Party/FreeRTOS/Source/event_groups.c **** EventBits_t uxReturn, uxControlBits = 0;
 300:Middlewares/Third_Party/FreeRTOS/Source/event_groups.c **** BaseType_t xWaitConditionMet, xAlreadyYielded;
 301:Middlewares/Third_Party/FreeRTOS/Source/event_groups.c **** BaseType_t xTimeoutOccurred = pdFALSE;
 302:Middlewares/Third_Party/FreeRTOS/Source/event_groups.c **** 
 303:Middlewares/Third_Party/FreeRTOS/Source/event_groups.c **** 	/* Check the user is not attempting to wait on the bits used by the kernel
 304:Middlewares/Third_Party/FreeRTOS/Source/event_groups.c **** 	itself, and that at least one bit is being requested. */
 305:Middlewares/Third_Party/FreeRTOS/Source/event_groups.c **** 	configASSERT( xEventGroup );
 306:Middlewares/Third_Party/FreeRTOS/Source/event_groups.c **** 	configASSERT( ( uxBitsToWaitFor & eventEVENT_BITS_CONTROL_BYTES ) == 0 );
 307:Middlewares/Third_Party/FreeRTOS/Source/event_groups.c **** 	configASSERT( uxBitsToWaitFor != 0 );
 308:Middlewares/Third_Party/FreeRTOS/Source/event_groups.c **** 	#if ( ( INCLUDE_xTaskGetSchedulerState == 1 ) || ( configUSE_TIMERS == 1 ) )
 309:Middlewares/Third_Party/FreeRTOS/Source/event_groups.c **** 	{
 310:Middlewares/Third_Party/FreeRTOS/Source/event_groups.c **** 		configASSERT( !( ( xTaskGetSchedulerState() == taskSCHEDULER_SUSPENDED ) && ( xTicksToWait != 0 )
 311:Middlewares/Third_Party/FreeRTOS/Source/event_groups.c **** 	}
 312:Middlewares/Third_Party/FreeRTOS/Source/event_groups.c **** 	#endif
 313:Middlewares/Third_Party/FreeRTOS/Source/event_groups.c **** 
 314:Middlewares/Third_Party/FreeRTOS/Source/event_groups.c **** 	vTaskSuspendAll();
 315:Middlewares/Third_Party/FreeRTOS/Source/event_groups.c **** 	{
ARM GAS  /var/folders/bp/hbn4m0qx5z54srgsq53w67zh0000gr/T//ccFnrHoI.s 			page 7


 316:Middlewares/Third_Party/FreeRTOS/Source/event_groups.c **** 		const EventBits_t uxCurrentEventBits = pxEventBits->uxEventBits;
 317:Middlewares/Third_Party/FreeRTOS/Source/event_groups.c **** 
 318:Middlewares/Third_Party/FreeRTOS/Source/event_groups.c **** 		/* Check to see if the wait condition is already met or not. */
 319:Middlewares/Third_Party/FreeRTOS/Source/event_groups.c **** 		xWaitConditionMet = prvTestWaitCondition( uxCurrentEventBits, uxBitsToWaitFor, xWaitForAllBits );
 320:Middlewares/Third_Party/FreeRTOS/Source/event_groups.c **** 
 321:Middlewares/Third_Party/FreeRTOS/Source/event_groups.c **** 		if( xWaitConditionMet != pdFALSE )
 322:Middlewares/Third_Party/FreeRTOS/Source/event_groups.c **** 		{
 323:Middlewares/Third_Party/FreeRTOS/Source/event_groups.c **** 			/* The wait condition has already been met so there is no need to
 324:Middlewares/Third_Party/FreeRTOS/Source/event_groups.c **** 			block. */
 325:Middlewares/Third_Party/FreeRTOS/Source/event_groups.c **** 			uxReturn = uxCurrentEventBits;
 326:Middlewares/Third_Party/FreeRTOS/Source/event_groups.c **** 			xTicksToWait = ( TickType_t ) 0;
 327:Middlewares/Third_Party/FreeRTOS/Source/event_groups.c **** 
 328:Middlewares/Third_Party/FreeRTOS/Source/event_groups.c **** 			/* Clear the wait bits if requested to do so. */
 329:Middlewares/Third_Party/FreeRTOS/Source/event_groups.c **** 			if( xClearOnExit != pdFALSE )
 330:Middlewares/Third_Party/FreeRTOS/Source/event_groups.c **** 			{
 331:Middlewares/Third_Party/FreeRTOS/Source/event_groups.c **** 				pxEventBits->uxEventBits &= ~uxBitsToWaitFor;
 332:Middlewares/Third_Party/FreeRTOS/Source/event_groups.c **** 			}
 333:Middlewares/Third_Party/FreeRTOS/Source/event_groups.c **** 			else
 334:Middlewares/Third_Party/FreeRTOS/Source/event_groups.c **** 			{
 335:Middlewares/Third_Party/FreeRTOS/Source/event_groups.c **** 				mtCOVERAGE_TEST_MARKER();
 336:Middlewares/Third_Party/FreeRTOS/Source/event_groups.c **** 			}
 337:Middlewares/Third_Party/FreeRTOS/Source/event_groups.c **** 		}
 338:Middlewares/Third_Party/FreeRTOS/Source/event_groups.c **** 		else if( xTicksToWait == ( TickType_t ) 0 )
 339:Middlewares/Third_Party/FreeRTOS/Source/event_groups.c **** 		{
 340:Middlewares/Third_Party/FreeRTOS/Source/event_groups.c **** 			/* The wait condition has not been met, but no block time was
 341:Middlewares/Third_Party/FreeRTOS/Source/event_groups.c **** 			specified, so just return the current value. */
 342:Middlewares/Third_Party/FreeRTOS/Source/event_groups.c **** 			uxReturn = uxCurrentEventBits;
 343:Middlewares/Third_Party/FreeRTOS/Source/event_groups.c **** 			xTimeoutOccurred = pdTRUE;
 344:Middlewares/Third_Party/FreeRTOS/Source/event_groups.c **** 		}
 345:Middlewares/Third_Party/FreeRTOS/Source/event_groups.c **** 		else
 346:Middlewares/Third_Party/FreeRTOS/Source/event_groups.c **** 		{
 347:Middlewares/Third_Party/FreeRTOS/Source/event_groups.c **** 			/* The task is going to block to wait for its required bits to be
 348:Middlewares/Third_Party/FreeRTOS/Source/event_groups.c **** 			set.  uxControlBits are used to remember the specified behaviour of
 349:Middlewares/Third_Party/FreeRTOS/Source/event_groups.c **** 			this call to xEventGroupWaitBits() - for use when the event bits
 350:Middlewares/Third_Party/FreeRTOS/Source/event_groups.c **** 			unblock the task. */
 351:Middlewares/Third_Party/FreeRTOS/Source/event_groups.c **** 			if( xClearOnExit != pdFALSE )
 352:Middlewares/Third_Party/FreeRTOS/Source/event_groups.c **** 			{
 353:Middlewares/Third_Party/FreeRTOS/Source/event_groups.c **** 				uxControlBits |= eventCLEAR_EVENTS_ON_EXIT_BIT;
 354:Middlewares/Third_Party/FreeRTOS/Source/event_groups.c **** 			}
 355:Middlewares/Third_Party/FreeRTOS/Source/event_groups.c **** 			else
 356:Middlewares/Third_Party/FreeRTOS/Source/event_groups.c **** 			{
 357:Middlewares/Third_Party/FreeRTOS/Source/event_groups.c **** 				mtCOVERAGE_TEST_MARKER();
 358:Middlewares/Third_Party/FreeRTOS/Source/event_groups.c **** 			}
 359:Middlewares/Third_Party/FreeRTOS/Source/event_groups.c **** 
 360:Middlewares/Third_Party/FreeRTOS/Source/event_groups.c **** 			if( xWaitForAllBits != pdFALSE )
 361:Middlewares/Third_Party/FreeRTOS/Source/event_groups.c **** 			{
 362:Middlewares/Third_Party/FreeRTOS/Source/event_groups.c **** 				uxControlBits |= eventWAIT_FOR_ALL_BITS;
 363:Middlewares/Third_Party/FreeRTOS/Source/event_groups.c **** 			}
 364:Middlewares/Third_Party/FreeRTOS/Source/event_groups.c **** 			else
 365:Middlewares/Third_Party/FreeRTOS/Source/event_groups.c **** 			{
 366:Middlewares/Third_Party/FreeRTOS/Source/event_groups.c **** 				mtCOVERAGE_TEST_MARKER();
 367:Middlewares/Third_Party/FreeRTOS/Source/event_groups.c **** 			}
 368:Middlewares/Third_Party/FreeRTOS/Source/event_groups.c **** 
 369:Middlewares/Third_Party/FreeRTOS/Source/event_groups.c **** 			/* Store the bits that the calling task is waiting for in the
 370:Middlewares/Third_Party/FreeRTOS/Source/event_groups.c **** 			task's event list item so the kernel knows when a match is
 371:Middlewares/Third_Party/FreeRTOS/Source/event_groups.c **** 			found.  Then enter the blocked state. */
 372:Middlewares/Third_Party/FreeRTOS/Source/event_groups.c **** 			vTaskPlaceOnUnorderedEventList( &( pxEventBits->xTasksWaitingForBits ), ( uxBitsToWaitFor | uxCo
ARM GAS  /var/folders/bp/hbn4m0qx5z54srgsq53w67zh0000gr/T//ccFnrHoI.s 			page 8


 373:Middlewares/Third_Party/FreeRTOS/Source/event_groups.c **** 
 374:Middlewares/Third_Party/FreeRTOS/Source/event_groups.c **** 			/* This is obsolete as it will get set after the task unblocks, but
 375:Middlewares/Third_Party/FreeRTOS/Source/event_groups.c **** 			some compilers mistakenly generate a warning about the variable
 376:Middlewares/Third_Party/FreeRTOS/Source/event_groups.c **** 			being returned without being set if it is not done. */
 377:Middlewares/Third_Party/FreeRTOS/Source/event_groups.c **** 			uxReturn = 0;
 378:Middlewares/Third_Party/FreeRTOS/Source/event_groups.c **** 
 379:Middlewares/Third_Party/FreeRTOS/Source/event_groups.c **** 			traceEVENT_GROUP_WAIT_BITS_BLOCK( xEventGroup, uxBitsToWaitFor );
 380:Middlewares/Third_Party/FreeRTOS/Source/event_groups.c **** 		}
 381:Middlewares/Third_Party/FreeRTOS/Source/event_groups.c **** 	}
 382:Middlewares/Third_Party/FreeRTOS/Source/event_groups.c **** 	xAlreadyYielded = xTaskResumeAll();
 383:Middlewares/Third_Party/FreeRTOS/Source/event_groups.c **** 
 384:Middlewares/Third_Party/FreeRTOS/Source/event_groups.c **** 	if( xTicksToWait != ( TickType_t ) 0 )
 385:Middlewares/Third_Party/FreeRTOS/Source/event_groups.c **** 	{
 386:Middlewares/Third_Party/FreeRTOS/Source/event_groups.c **** 		if( xAlreadyYielded == pdFALSE )
 387:Middlewares/Third_Party/FreeRTOS/Source/event_groups.c **** 		{
 388:Middlewares/Third_Party/FreeRTOS/Source/event_groups.c **** 			portYIELD_WITHIN_API();
 389:Middlewares/Third_Party/FreeRTOS/Source/event_groups.c **** 		}
 390:Middlewares/Third_Party/FreeRTOS/Source/event_groups.c **** 		else
 391:Middlewares/Third_Party/FreeRTOS/Source/event_groups.c **** 		{
 392:Middlewares/Third_Party/FreeRTOS/Source/event_groups.c **** 			mtCOVERAGE_TEST_MARKER();
 393:Middlewares/Third_Party/FreeRTOS/Source/event_groups.c **** 		}
 394:Middlewares/Third_Party/FreeRTOS/Source/event_groups.c **** 
 395:Middlewares/Third_Party/FreeRTOS/Source/event_groups.c **** 		/* The task blocked to wait for its required bits to be set - at this
 396:Middlewares/Third_Party/FreeRTOS/Source/event_groups.c **** 		point either the required bits were set or the block time expired.  If
 397:Middlewares/Third_Party/FreeRTOS/Source/event_groups.c **** 		the required bits were set they will have been stored in the task's
 398:Middlewares/Third_Party/FreeRTOS/Source/event_groups.c **** 		event list item, and they should now be retrieved then cleared. */
 399:Middlewares/Third_Party/FreeRTOS/Source/event_groups.c **** 		uxReturn = uxTaskResetEventItemValue();
 400:Middlewares/Third_Party/FreeRTOS/Source/event_groups.c **** 
 401:Middlewares/Third_Party/FreeRTOS/Source/event_groups.c **** 		if( ( uxReturn & eventUNBLOCKED_DUE_TO_BIT_SET ) == ( EventBits_t ) 0 )
 402:Middlewares/Third_Party/FreeRTOS/Source/event_groups.c **** 		{
 403:Middlewares/Third_Party/FreeRTOS/Source/event_groups.c **** 			taskENTER_CRITICAL();
 404:Middlewares/Third_Party/FreeRTOS/Source/event_groups.c **** 			{
 405:Middlewares/Third_Party/FreeRTOS/Source/event_groups.c **** 				/* The task timed out, just return the current event bit value. */
 406:Middlewares/Third_Party/FreeRTOS/Source/event_groups.c **** 				uxReturn = pxEventBits->uxEventBits;
 407:Middlewares/Third_Party/FreeRTOS/Source/event_groups.c **** 
 408:Middlewares/Third_Party/FreeRTOS/Source/event_groups.c **** 				/* It is possible that the event bits were updated between this
 409:Middlewares/Third_Party/FreeRTOS/Source/event_groups.c **** 				task leaving the Blocked state and running again. */
 410:Middlewares/Third_Party/FreeRTOS/Source/event_groups.c **** 				if( prvTestWaitCondition( uxReturn, uxBitsToWaitFor, xWaitForAllBits ) != pdFALSE )
 411:Middlewares/Third_Party/FreeRTOS/Source/event_groups.c **** 				{
 412:Middlewares/Third_Party/FreeRTOS/Source/event_groups.c **** 					if( xClearOnExit != pdFALSE )
 413:Middlewares/Third_Party/FreeRTOS/Source/event_groups.c **** 					{
 414:Middlewares/Third_Party/FreeRTOS/Source/event_groups.c **** 						pxEventBits->uxEventBits &= ~uxBitsToWaitFor;
 415:Middlewares/Third_Party/FreeRTOS/Source/event_groups.c **** 					}
 416:Middlewares/Third_Party/FreeRTOS/Source/event_groups.c **** 					else
 417:Middlewares/Third_Party/FreeRTOS/Source/event_groups.c **** 					{
 418:Middlewares/Third_Party/FreeRTOS/Source/event_groups.c **** 						mtCOVERAGE_TEST_MARKER();
 419:Middlewares/Third_Party/FreeRTOS/Source/event_groups.c **** 					}
 420:Middlewares/Third_Party/FreeRTOS/Source/event_groups.c **** 				}
 421:Middlewares/Third_Party/FreeRTOS/Source/event_groups.c **** 				else
 422:Middlewares/Third_Party/FreeRTOS/Source/event_groups.c **** 				{
 423:Middlewares/Third_Party/FreeRTOS/Source/event_groups.c **** 					mtCOVERAGE_TEST_MARKER();
 424:Middlewares/Third_Party/FreeRTOS/Source/event_groups.c **** 				}
 425:Middlewares/Third_Party/FreeRTOS/Source/event_groups.c **** 				xTimeoutOccurred = pdTRUE;
 426:Middlewares/Third_Party/FreeRTOS/Source/event_groups.c **** 			}
 427:Middlewares/Third_Party/FreeRTOS/Source/event_groups.c **** 			taskEXIT_CRITICAL();
 428:Middlewares/Third_Party/FreeRTOS/Source/event_groups.c **** 		}
 429:Middlewares/Third_Party/FreeRTOS/Source/event_groups.c **** 		else
ARM GAS  /var/folders/bp/hbn4m0qx5z54srgsq53w67zh0000gr/T//ccFnrHoI.s 			page 9


 430:Middlewares/Third_Party/FreeRTOS/Source/event_groups.c **** 		{
 431:Middlewares/Third_Party/FreeRTOS/Source/event_groups.c **** 			/* The task unblocked because the bits were set. */
 432:Middlewares/Third_Party/FreeRTOS/Source/event_groups.c **** 		}
 433:Middlewares/Third_Party/FreeRTOS/Source/event_groups.c **** 
 434:Middlewares/Third_Party/FreeRTOS/Source/event_groups.c **** 		/* The task blocked so control bits may have been set. */
 435:Middlewares/Third_Party/FreeRTOS/Source/event_groups.c **** 		uxReturn &= ~eventEVENT_BITS_CONTROL_BYTES;
 436:Middlewares/Third_Party/FreeRTOS/Source/event_groups.c **** 	}
 437:Middlewares/Third_Party/FreeRTOS/Source/event_groups.c **** 	traceEVENT_GROUP_WAIT_BITS_END( xEventGroup, uxBitsToWaitFor, xTimeoutOccurred );
 438:Middlewares/Third_Party/FreeRTOS/Source/event_groups.c **** 
 439:Middlewares/Third_Party/FreeRTOS/Source/event_groups.c **** 	/* Prevent compiler warnings when trace macros are not used. */
 440:Middlewares/Third_Party/FreeRTOS/Source/event_groups.c **** 	( void ) xTimeoutOccurred;
 441:Middlewares/Third_Party/FreeRTOS/Source/event_groups.c **** 
 442:Middlewares/Third_Party/FreeRTOS/Source/event_groups.c **** 	return uxReturn;
 443:Middlewares/Third_Party/FreeRTOS/Source/event_groups.c **** }
 444:Middlewares/Third_Party/FreeRTOS/Source/event_groups.c **** /*-----------------------------------------------------------*/
 445:Middlewares/Third_Party/FreeRTOS/Source/event_groups.c **** 
 446:Middlewares/Third_Party/FreeRTOS/Source/event_groups.c **** EventBits_t xEventGroupClearBits( EventGroupHandle_t xEventGroup, const EventBits_t uxBitsToClear )
 447:Middlewares/Third_Party/FreeRTOS/Source/event_groups.c **** {
 448:Middlewares/Third_Party/FreeRTOS/Source/event_groups.c **** EventGroup_t *pxEventBits = ( EventGroup_t * ) xEventGroup;
 449:Middlewares/Third_Party/FreeRTOS/Source/event_groups.c **** EventBits_t uxReturn;
 450:Middlewares/Third_Party/FreeRTOS/Source/event_groups.c **** 
 451:Middlewares/Third_Party/FreeRTOS/Source/event_groups.c **** 	/* Check the user is not attempting to clear the bits used by the kernel
 452:Middlewares/Third_Party/FreeRTOS/Source/event_groups.c **** 	itself. */
 453:Middlewares/Third_Party/FreeRTOS/Source/event_groups.c **** 	configASSERT( xEventGroup );
 454:Middlewares/Third_Party/FreeRTOS/Source/event_groups.c **** 	configASSERT( ( uxBitsToClear & eventEVENT_BITS_CONTROL_BYTES ) == 0 );
 455:Middlewares/Third_Party/FreeRTOS/Source/event_groups.c **** 
 456:Middlewares/Third_Party/FreeRTOS/Source/event_groups.c **** 	taskENTER_CRITICAL();
 457:Middlewares/Third_Party/FreeRTOS/Source/event_groups.c **** 	{
 458:Middlewares/Third_Party/FreeRTOS/Source/event_groups.c **** 		traceEVENT_GROUP_CLEAR_BITS( xEventGroup, uxBitsToClear );
 459:Middlewares/Third_Party/FreeRTOS/Source/event_groups.c **** 
 460:Middlewares/Third_Party/FreeRTOS/Source/event_groups.c **** 		/* The value returned is the event group value prior to the bits being
 461:Middlewares/Third_Party/FreeRTOS/Source/event_groups.c **** 		cleared. */
 462:Middlewares/Third_Party/FreeRTOS/Source/event_groups.c **** 		uxReturn = pxEventBits->uxEventBits;
 463:Middlewares/Third_Party/FreeRTOS/Source/event_groups.c **** 
 464:Middlewares/Third_Party/FreeRTOS/Source/event_groups.c **** 		/* Clear the bits. */
 465:Middlewares/Third_Party/FreeRTOS/Source/event_groups.c **** 		pxEventBits->uxEventBits &= ~uxBitsToClear;
 466:Middlewares/Third_Party/FreeRTOS/Source/event_groups.c **** 	}
 467:Middlewares/Third_Party/FreeRTOS/Source/event_groups.c **** 	taskEXIT_CRITICAL();
 468:Middlewares/Third_Party/FreeRTOS/Source/event_groups.c **** 
 469:Middlewares/Third_Party/FreeRTOS/Source/event_groups.c **** 	return uxReturn;
 470:Middlewares/Third_Party/FreeRTOS/Source/event_groups.c **** }
 471:Middlewares/Third_Party/FreeRTOS/Source/event_groups.c **** /*-----------------------------------------------------------*/
 472:Middlewares/Third_Party/FreeRTOS/Source/event_groups.c **** 
 473:Middlewares/Third_Party/FreeRTOS/Source/event_groups.c **** #if ( ( configUSE_TRACE_FACILITY == 1 ) && ( INCLUDE_xTimerPendFunctionCall == 1 ) && ( configUSE_T
 474:Middlewares/Third_Party/FreeRTOS/Source/event_groups.c **** 
 475:Middlewares/Third_Party/FreeRTOS/Source/event_groups.c **** 	BaseType_t xEventGroupClearBitsFromISR( EventGroupHandle_t xEventGroup, const EventBits_t uxBitsTo
 476:Middlewares/Third_Party/FreeRTOS/Source/event_groups.c **** 	{
 477:Middlewares/Third_Party/FreeRTOS/Source/event_groups.c **** 		BaseType_t xReturn;
 478:Middlewares/Third_Party/FreeRTOS/Source/event_groups.c **** 
 479:Middlewares/Third_Party/FreeRTOS/Source/event_groups.c **** 		traceEVENT_GROUP_CLEAR_BITS_FROM_ISR( xEventGroup, uxBitsToClear );
 480:Middlewares/Third_Party/FreeRTOS/Source/event_groups.c **** 		xReturn = xTimerPendFunctionCallFromISR( vEventGroupClearBitsCallback, ( void * ) xEventGroup, ( 
 481:Middlewares/Third_Party/FreeRTOS/Source/event_groups.c **** 
 482:Middlewares/Third_Party/FreeRTOS/Source/event_groups.c **** 		return xReturn;
 483:Middlewares/Third_Party/FreeRTOS/Source/event_groups.c **** 	}
 484:Middlewares/Third_Party/FreeRTOS/Source/event_groups.c **** 
 485:Middlewares/Third_Party/FreeRTOS/Source/event_groups.c **** #endif
 486:Middlewares/Third_Party/FreeRTOS/Source/event_groups.c **** /*-----------------------------------------------------------*/
ARM GAS  /var/folders/bp/hbn4m0qx5z54srgsq53w67zh0000gr/T//ccFnrHoI.s 			page 10


 487:Middlewares/Third_Party/FreeRTOS/Source/event_groups.c **** 
 488:Middlewares/Third_Party/FreeRTOS/Source/event_groups.c **** EventBits_t xEventGroupGetBitsFromISR( EventGroupHandle_t xEventGroup )
 489:Middlewares/Third_Party/FreeRTOS/Source/event_groups.c **** {
 490:Middlewares/Third_Party/FreeRTOS/Source/event_groups.c **** UBaseType_t uxSavedInterruptStatus;
 491:Middlewares/Third_Party/FreeRTOS/Source/event_groups.c **** EventGroup_t *pxEventBits = ( EventGroup_t * ) xEventGroup;
 492:Middlewares/Third_Party/FreeRTOS/Source/event_groups.c **** EventBits_t uxReturn;
 493:Middlewares/Third_Party/FreeRTOS/Source/event_groups.c **** 
 494:Middlewares/Third_Party/FreeRTOS/Source/event_groups.c **** 	uxSavedInterruptStatus = portSET_INTERRUPT_MASK_FROM_ISR();
 495:Middlewares/Third_Party/FreeRTOS/Source/event_groups.c **** 	{
 496:Middlewares/Third_Party/FreeRTOS/Source/event_groups.c **** 		uxReturn = pxEventBits->uxEventBits;
 497:Middlewares/Third_Party/FreeRTOS/Source/event_groups.c **** 	}
 498:Middlewares/Third_Party/FreeRTOS/Source/event_groups.c **** 	portCLEAR_INTERRUPT_MASK_FROM_ISR( uxSavedInterruptStatus );
 499:Middlewares/Third_Party/FreeRTOS/Source/event_groups.c **** 
 500:Middlewares/Third_Party/FreeRTOS/Source/event_groups.c **** 	return uxReturn;
 501:Middlewares/Third_Party/FreeRTOS/Source/event_groups.c **** }
 502:Middlewares/Third_Party/FreeRTOS/Source/event_groups.c **** /*-----------------------------------------------------------*/
 503:Middlewares/Third_Party/FreeRTOS/Source/event_groups.c **** 
 504:Middlewares/Third_Party/FreeRTOS/Source/event_groups.c **** EventBits_t xEventGroupSetBits( EventGroupHandle_t xEventGroup, const EventBits_t uxBitsToSet )
 505:Middlewares/Third_Party/FreeRTOS/Source/event_groups.c **** {
 506:Middlewares/Third_Party/FreeRTOS/Source/event_groups.c **** ListItem_t *pxListItem, *pxNext;
 507:Middlewares/Third_Party/FreeRTOS/Source/event_groups.c **** ListItem_t const *pxListEnd;
 508:Middlewares/Third_Party/FreeRTOS/Source/event_groups.c **** List_t *pxList;
 509:Middlewares/Third_Party/FreeRTOS/Source/event_groups.c **** EventBits_t uxBitsToClear = 0, uxBitsWaitedFor, uxControlBits;
 510:Middlewares/Third_Party/FreeRTOS/Source/event_groups.c **** EventGroup_t *pxEventBits = ( EventGroup_t * ) xEventGroup;
 511:Middlewares/Third_Party/FreeRTOS/Source/event_groups.c **** BaseType_t xMatchFound = pdFALSE;
 512:Middlewares/Third_Party/FreeRTOS/Source/event_groups.c **** 
 513:Middlewares/Third_Party/FreeRTOS/Source/event_groups.c **** 	/* Check the user is not attempting to set the bits used by the kernel
 514:Middlewares/Third_Party/FreeRTOS/Source/event_groups.c **** 	itself. */
 515:Middlewares/Third_Party/FreeRTOS/Source/event_groups.c **** 	configASSERT( xEventGroup );
 516:Middlewares/Third_Party/FreeRTOS/Source/event_groups.c **** 	configASSERT( ( uxBitsToSet & eventEVENT_BITS_CONTROL_BYTES ) == 0 );
 517:Middlewares/Third_Party/FreeRTOS/Source/event_groups.c **** 
 518:Middlewares/Third_Party/FreeRTOS/Source/event_groups.c **** 	pxList = &( pxEventBits->xTasksWaitingForBits );
 519:Middlewares/Third_Party/FreeRTOS/Source/event_groups.c **** 	pxListEnd = listGET_END_MARKER( pxList ); /*lint !e826 !e740 The mini list structure is used as th
 520:Middlewares/Third_Party/FreeRTOS/Source/event_groups.c **** 	vTaskSuspendAll();
 521:Middlewares/Third_Party/FreeRTOS/Source/event_groups.c **** 	{
 522:Middlewares/Third_Party/FreeRTOS/Source/event_groups.c **** 		traceEVENT_GROUP_SET_BITS( xEventGroup, uxBitsToSet );
 523:Middlewares/Third_Party/FreeRTOS/Source/event_groups.c **** 
 524:Middlewares/Third_Party/FreeRTOS/Source/event_groups.c **** 		pxListItem = listGET_HEAD_ENTRY( pxList );
 525:Middlewares/Third_Party/FreeRTOS/Source/event_groups.c **** 
 526:Middlewares/Third_Party/FreeRTOS/Source/event_groups.c **** 		/* Set the bits. */
 527:Middlewares/Third_Party/FreeRTOS/Source/event_groups.c **** 		pxEventBits->uxEventBits |= uxBitsToSet;
 528:Middlewares/Third_Party/FreeRTOS/Source/event_groups.c **** 
 529:Middlewares/Third_Party/FreeRTOS/Source/event_groups.c **** 		/* See if the new bit value should unblock any tasks. */
 530:Middlewares/Third_Party/FreeRTOS/Source/event_groups.c **** 		while( pxListItem != pxListEnd )
 531:Middlewares/Third_Party/FreeRTOS/Source/event_groups.c **** 		{
 532:Middlewares/Third_Party/FreeRTOS/Source/event_groups.c **** 			pxNext = listGET_NEXT( pxListItem );
 533:Middlewares/Third_Party/FreeRTOS/Source/event_groups.c **** 			uxBitsWaitedFor = listGET_LIST_ITEM_VALUE( pxListItem );
 534:Middlewares/Third_Party/FreeRTOS/Source/event_groups.c **** 			xMatchFound = pdFALSE;
 535:Middlewares/Third_Party/FreeRTOS/Source/event_groups.c **** 
 536:Middlewares/Third_Party/FreeRTOS/Source/event_groups.c **** 			/* Split the bits waited for from the control bits. */
 537:Middlewares/Third_Party/FreeRTOS/Source/event_groups.c **** 			uxControlBits = uxBitsWaitedFor & eventEVENT_BITS_CONTROL_BYTES;
 538:Middlewares/Third_Party/FreeRTOS/Source/event_groups.c **** 			uxBitsWaitedFor &= ~eventEVENT_BITS_CONTROL_BYTES;
 539:Middlewares/Third_Party/FreeRTOS/Source/event_groups.c **** 
 540:Middlewares/Third_Party/FreeRTOS/Source/event_groups.c **** 			if( ( uxControlBits & eventWAIT_FOR_ALL_BITS ) == ( EventBits_t ) 0 )
 541:Middlewares/Third_Party/FreeRTOS/Source/event_groups.c **** 			{
 542:Middlewares/Third_Party/FreeRTOS/Source/event_groups.c **** 				/* Just looking for single bit being set. */
 543:Middlewares/Third_Party/FreeRTOS/Source/event_groups.c **** 				if( ( uxBitsWaitedFor & pxEventBits->uxEventBits ) != ( EventBits_t ) 0 )
ARM GAS  /var/folders/bp/hbn4m0qx5z54srgsq53w67zh0000gr/T//ccFnrHoI.s 			page 11


 544:Middlewares/Third_Party/FreeRTOS/Source/event_groups.c **** 				{
 545:Middlewares/Third_Party/FreeRTOS/Source/event_groups.c **** 					xMatchFound = pdTRUE;
 546:Middlewares/Third_Party/FreeRTOS/Source/event_groups.c **** 				}
 547:Middlewares/Third_Party/FreeRTOS/Source/event_groups.c **** 				else
 548:Middlewares/Third_Party/FreeRTOS/Source/event_groups.c **** 				{
 549:Middlewares/Third_Party/FreeRTOS/Source/event_groups.c **** 					mtCOVERAGE_TEST_MARKER();
 550:Middlewares/Third_Party/FreeRTOS/Source/event_groups.c **** 				}
 551:Middlewares/Third_Party/FreeRTOS/Source/event_groups.c **** 			}
 552:Middlewares/Third_Party/FreeRTOS/Source/event_groups.c **** 			else if( ( uxBitsWaitedFor & pxEventBits->uxEventBits ) == uxBitsWaitedFor )
 553:Middlewares/Third_Party/FreeRTOS/Source/event_groups.c **** 			{
 554:Middlewares/Third_Party/FreeRTOS/Source/event_groups.c **** 				/* All bits are set. */
 555:Middlewares/Third_Party/FreeRTOS/Source/event_groups.c **** 				xMatchFound = pdTRUE;
 556:Middlewares/Third_Party/FreeRTOS/Source/event_groups.c **** 			}
 557:Middlewares/Third_Party/FreeRTOS/Source/event_groups.c **** 			else
 558:Middlewares/Third_Party/FreeRTOS/Source/event_groups.c **** 			{
 559:Middlewares/Third_Party/FreeRTOS/Source/event_groups.c **** 				/* Need all bits to be set, but not all the bits were set. */
 560:Middlewares/Third_Party/FreeRTOS/Source/event_groups.c **** 			}
 561:Middlewares/Third_Party/FreeRTOS/Source/event_groups.c **** 
 562:Middlewares/Third_Party/FreeRTOS/Source/event_groups.c **** 			if( xMatchFound != pdFALSE )
 563:Middlewares/Third_Party/FreeRTOS/Source/event_groups.c **** 			{
 564:Middlewares/Third_Party/FreeRTOS/Source/event_groups.c **** 				/* The bits match.  Should the bits be cleared on exit? */
 565:Middlewares/Third_Party/FreeRTOS/Source/event_groups.c **** 				if( ( uxControlBits & eventCLEAR_EVENTS_ON_EXIT_BIT ) != ( EventBits_t ) 0 )
 566:Middlewares/Third_Party/FreeRTOS/Source/event_groups.c **** 				{
 567:Middlewares/Third_Party/FreeRTOS/Source/event_groups.c **** 					uxBitsToClear |= uxBitsWaitedFor;
 568:Middlewares/Third_Party/FreeRTOS/Source/event_groups.c **** 				}
 569:Middlewares/Third_Party/FreeRTOS/Source/event_groups.c **** 				else
 570:Middlewares/Third_Party/FreeRTOS/Source/event_groups.c **** 				{
 571:Middlewares/Third_Party/FreeRTOS/Source/event_groups.c **** 					mtCOVERAGE_TEST_MARKER();
 572:Middlewares/Third_Party/FreeRTOS/Source/event_groups.c **** 				}
 573:Middlewares/Third_Party/FreeRTOS/Source/event_groups.c **** 
 574:Middlewares/Third_Party/FreeRTOS/Source/event_groups.c **** 				/* Store the actual event flag value in the task's event list
 575:Middlewares/Third_Party/FreeRTOS/Source/event_groups.c **** 				item before removing the task from the event list.  The
 576:Middlewares/Third_Party/FreeRTOS/Source/event_groups.c **** 				eventUNBLOCKED_DUE_TO_BIT_SET bit is set so the task knows
 577:Middlewares/Third_Party/FreeRTOS/Source/event_groups.c **** 				that is was unblocked due to its required bits matching, rather
 578:Middlewares/Third_Party/FreeRTOS/Source/event_groups.c **** 				than because it timed out. */
 579:Middlewares/Third_Party/FreeRTOS/Source/event_groups.c **** 				vTaskRemoveFromUnorderedEventList( pxListItem, pxEventBits->uxEventBits | eventUNBLOCKED_DUE_TO
 580:Middlewares/Third_Party/FreeRTOS/Source/event_groups.c **** 			}
 581:Middlewares/Third_Party/FreeRTOS/Source/event_groups.c **** 
 582:Middlewares/Third_Party/FreeRTOS/Source/event_groups.c **** 			/* Move onto the next list item.  Note pxListItem->pxNext is not
 583:Middlewares/Third_Party/FreeRTOS/Source/event_groups.c **** 			used here as the list item may have been removed from the event list
 584:Middlewares/Third_Party/FreeRTOS/Source/event_groups.c **** 			and inserted into the ready/pending reading list. */
 585:Middlewares/Third_Party/FreeRTOS/Source/event_groups.c **** 			pxListItem = pxNext;
 586:Middlewares/Third_Party/FreeRTOS/Source/event_groups.c **** 		}
 587:Middlewares/Third_Party/FreeRTOS/Source/event_groups.c **** 
 588:Middlewares/Third_Party/FreeRTOS/Source/event_groups.c **** 		/* Clear any bits that matched when the eventCLEAR_EVENTS_ON_EXIT_BIT
 589:Middlewares/Third_Party/FreeRTOS/Source/event_groups.c **** 		bit was set in the control word. */
 590:Middlewares/Third_Party/FreeRTOS/Source/event_groups.c **** 		pxEventBits->uxEventBits &= ~uxBitsToClear;
 591:Middlewares/Third_Party/FreeRTOS/Source/event_groups.c **** 	}
 592:Middlewares/Third_Party/FreeRTOS/Source/event_groups.c **** 	( void ) xTaskResumeAll();
 593:Middlewares/Third_Party/FreeRTOS/Source/event_groups.c **** 
 594:Middlewares/Third_Party/FreeRTOS/Source/event_groups.c **** 	return pxEventBits->uxEventBits;
 595:Middlewares/Third_Party/FreeRTOS/Source/event_groups.c **** }
 596:Middlewares/Third_Party/FreeRTOS/Source/event_groups.c **** /*-----------------------------------------------------------*/
 597:Middlewares/Third_Party/FreeRTOS/Source/event_groups.c **** 
 598:Middlewares/Third_Party/FreeRTOS/Source/event_groups.c **** void vEventGroupDelete( EventGroupHandle_t xEventGroup )
 599:Middlewares/Third_Party/FreeRTOS/Source/event_groups.c **** {
 600:Middlewares/Third_Party/FreeRTOS/Source/event_groups.c **** EventGroup_t *pxEventBits = ( EventGroup_t * ) xEventGroup;
ARM GAS  /var/folders/bp/hbn4m0qx5z54srgsq53w67zh0000gr/T//ccFnrHoI.s 			page 12


 601:Middlewares/Third_Party/FreeRTOS/Source/event_groups.c **** const List_t *pxTasksWaitingForBits = &( pxEventBits->xTasksWaitingForBits );
 602:Middlewares/Third_Party/FreeRTOS/Source/event_groups.c **** 
 603:Middlewares/Third_Party/FreeRTOS/Source/event_groups.c **** 	vTaskSuspendAll();
 604:Middlewares/Third_Party/FreeRTOS/Source/event_groups.c **** 	{
 605:Middlewares/Third_Party/FreeRTOS/Source/event_groups.c **** 		traceEVENT_GROUP_DELETE( xEventGroup );
 606:Middlewares/Third_Party/FreeRTOS/Source/event_groups.c **** 
 607:Middlewares/Third_Party/FreeRTOS/Source/event_groups.c **** 		while( listCURRENT_LIST_LENGTH( pxTasksWaitingForBits ) > ( UBaseType_t ) 0 )
 608:Middlewares/Third_Party/FreeRTOS/Source/event_groups.c **** 		{
 609:Middlewares/Third_Party/FreeRTOS/Source/event_groups.c **** 			/* Unblock the task, returning 0 as the event list is being deleted
 610:Middlewares/Third_Party/FreeRTOS/Source/event_groups.c **** 			and cannot therefore have any bits set. */
 611:Middlewares/Third_Party/FreeRTOS/Source/event_groups.c **** 			configASSERT( pxTasksWaitingForBits->xListEnd.pxNext != ( const ListItem_t * ) &( pxTasksWaiting
 612:Middlewares/Third_Party/FreeRTOS/Source/event_groups.c **** 			vTaskRemoveFromUnorderedEventList( pxTasksWaitingForBits->xListEnd.pxNext, eventUNBLOCKED_DUE_TO
 613:Middlewares/Third_Party/FreeRTOS/Source/event_groups.c **** 		}
 614:Middlewares/Third_Party/FreeRTOS/Source/event_groups.c **** 
 615:Middlewares/Third_Party/FreeRTOS/Source/event_groups.c **** 		#if( ( configSUPPORT_DYNAMIC_ALLOCATION == 1 ) && ( configSUPPORT_STATIC_ALLOCATION == 0 ) )
 616:Middlewares/Third_Party/FreeRTOS/Source/event_groups.c **** 		{
 617:Middlewares/Third_Party/FreeRTOS/Source/event_groups.c **** 			/* The event group can only have been allocated dynamically - free
 618:Middlewares/Third_Party/FreeRTOS/Source/event_groups.c **** 			it again. */
 619:Middlewares/Third_Party/FreeRTOS/Source/event_groups.c **** 			vPortFree( pxEventBits );
 620:Middlewares/Third_Party/FreeRTOS/Source/event_groups.c **** 		}
 621:Middlewares/Third_Party/FreeRTOS/Source/event_groups.c **** 		#elif( ( configSUPPORT_DYNAMIC_ALLOCATION == 1 ) && ( configSUPPORT_STATIC_ALLOCATION == 1 ) )
 622:Middlewares/Third_Party/FreeRTOS/Source/event_groups.c **** 		{
 623:Middlewares/Third_Party/FreeRTOS/Source/event_groups.c **** 			/* The event group could have been allocated statically or
 624:Middlewares/Third_Party/FreeRTOS/Source/event_groups.c **** 			dynamically, so check before attempting to free the memory. */
 625:Middlewares/Third_Party/FreeRTOS/Source/event_groups.c **** 			if( pxEventBits->ucStaticallyAllocated == ( uint8_t ) pdFALSE )
 626:Middlewares/Third_Party/FreeRTOS/Source/event_groups.c **** 			{
 627:Middlewares/Third_Party/FreeRTOS/Source/event_groups.c **** 				vPortFree( pxEventBits );
 628:Middlewares/Third_Party/FreeRTOS/Source/event_groups.c **** 			}
 629:Middlewares/Third_Party/FreeRTOS/Source/event_groups.c **** 			else
 630:Middlewares/Third_Party/FreeRTOS/Source/event_groups.c **** 			{
 631:Middlewares/Third_Party/FreeRTOS/Source/event_groups.c **** 				mtCOVERAGE_TEST_MARKER();
 632:Middlewares/Third_Party/FreeRTOS/Source/event_groups.c **** 			}
 633:Middlewares/Third_Party/FreeRTOS/Source/event_groups.c **** 		}
 634:Middlewares/Third_Party/FreeRTOS/Source/event_groups.c **** 		#endif /* configSUPPORT_DYNAMIC_ALLOCATION */
 635:Middlewares/Third_Party/FreeRTOS/Source/event_groups.c **** 	}
 636:Middlewares/Third_Party/FreeRTOS/Source/event_groups.c **** 	( void ) xTaskResumeAll();
 637:Middlewares/Third_Party/FreeRTOS/Source/event_groups.c **** }
 638:Middlewares/Third_Party/FreeRTOS/Source/event_groups.c **** /*-----------------------------------------------------------*/
 639:Middlewares/Third_Party/FreeRTOS/Source/event_groups.c **** 
 640:Middlewares/Third_Party/FreeRTOS/Source/event_groups.c **** /* For internal use only - execute a 'set bits' command that was pended from
 641:Middlewares/Third_Party/FreeRTOS/Source/event_groups.c **** an interrupt. */
 642:Middlewares/Third_Party/FreeRTOS/Source/event_groups.c **** void vEventGroupSetBitsCallback( void *pvEventGroup, const uint32_t ulBitsToSet )
 643:Middlewares/Third_Party/FreeRTOS/Source/event_groups.c **** {
 644:Middlewares/Third_Party/FreeRTOS/Source/event_groups.c **** 	( void ) xEventGroupSetBits( pvEventGroup, ( EventBits_t ) ulBitsToSet );
 645:Middlewares/Third_Party/FreeRTOS/Source/event_groups.c **** }
 646:Middlewares/Third_Party/FreeRTOS/Source/event_groups.c **** /*-----------------------------------------------------------*/
 647:Middlewares/Third_Party/FreeRTOS/Source/event_groups.c **** 
 648:Middlewares/Third_Party/FreeRTOS/Source/event_groups.c **** /* For internal use only - execute a 'clear bits' command that was pended from
 649:Middlewares/Third_Party/FreeRTOS/Source/event_groups.c **** an interrupt. */
 650:Middlewares/Third_Party/FreeRTOS/Source/event_groups.c **** void vEventGroupClearBitsCallback( void *pvEventGroup, const uint32_t ulBitsToClear )
 651:Middlewares/Third_Party/FreeRTOS/Source/event_groups.c **** {
 652:Middlewares/Third_Party/FreeRTOS/Source/event_groups.c **** 	( void ) xEventGroupClearBits( pvEventGroup, ( EventBits_t ) ulBitsToClear );
 653:Middlewares/Third_Party/FreeRTOS/Source/event_groups.c **** }
 654:Middlewares/Third_Party/FreeRTOS/Source/event_groups.c **** /*-----------------------------------------------------------*/
 655:Middlewares/Third_Party/FreeRTOS/Source/event_groups.c **** 
 656:Middlewares/Third_Party/FreeRTOS/Source/event_groups.c **** static BaseType_t prvTestWaitCondition( const EventBits_t uxCurrentEventBits, const EventBits_t uxB
 657:Middlewares/Third_Party/FreeRTOS/Source/event_groups.c **** {
ARM GAS  /var/folders/bp/hbn4m0qx5z54srgsq53w67zh0000gr/T//ccFnrHoI.s 			page 13


  29              		.loc 1 657 1 view -0
  30              		.cfi_startproc
  31              		@ args = 0, pretend = 0, frame = 0
  32              		@ frame_needed = 0, uses_anonymous_args = 0
  33              		@ link register save eliminated.
 658:Middlewares/Third_Party/FreeRTOS/Source/event_groups.c **** BaseType_t xWaitConditionMet = pdFALSE;
  34              		.loc 1 658 1 view .LVU1
 659:Middlewares/Third_Party/FreeRTOS/Source/event_groups.c **** 
 660:Middlewares/Third_Party/FreeRTOS/Source/event_groups.c **** 	if( xWaitForAllBits == pdFALSE )
  35              		.loc 1 660 2 view .LVU2
  36              		.loc 1 660 4 is_stmt 0 view .LVU3
  37 0000 1AB9     		cbnz	r2, .L2
 661:Middlewares/Third_Party/FreeRTOS/Source/event_groups.c **** 	{
 662:Middlewares/Third_Party/FreeRTOS/Source/event_groups.c **** 		/* Task only has to wait for one bit within uxBitsToWaitFor to be
 663:Middlewares/Third_Party/FreeRTOS/Source/event_groups.c **** 		set.  Is one already set? */
 664:Middlewares/Third_Party/FreeRTOS/Source/event_groups.c **** 		if( ( uxCurrentEventBits & uxBitsToWaitFor ) != ( EventBits_t ) 0 )
  38              		.loc 1 664 3 is_stmt 1 view .LVU4
  39              		.loc 1 664 5 is_stmt 0 view .LVU5
  40 0002 0842     		tst	r0, r1
  41 0004 06D1     		bne	.L4
 658:Middlewares/Third_Party/FreeRTOS/Source/event_groups.c **** 
  42              		.loc 1 658 12 view .LVU6
  43 0006 1046     		mov	r0, r2
  44              	.LVL1:
 658:Middlewares/Third_Party/FreeRTOS/Source/event_groups.c **** 
  45              		.loc 1 658 12 view .LVU7
  46 0008 7047     		bx	lr
  47              	.LVL2:
  48              	.L2:
 665:Middlewares/Third_Party/FreeRTOS/Source/event_groups.c **** 		{
 666:Middlewares/Third_Party/FreeRTOS/Source/event_groups.c **** 			xWaitConditionMet = pdTRUE;
 667:Middlewares/Third_Party/FreeRTOS/Source/event_groups.c **** 		}
 668:Middlewares/Third_Party/FreeRTOS/Source/event_groups.c **** 		else
 669:Middlewares/Third_Party/FreeRTOS/Source/event_groups.c **** 		{
 670:Middlewares/Third_Party/FreeRTOS/Source/event_groups.c **** 			mtCOVERAGE_TEST_MARKER();
 671:Middlewares/Third_Party/FreeRTOS/Source/event_groups.c **** 		}
 672:Middlewares/Third_Party/FreeRTOS/Source/event_groups.c **** 	}
 673:Middlewares/Third_Party/FreeRTOS/Source/event_groups.c **** 	else
 674:Middlewares/Third_Party/FreeRTOS/Source/event_groups.c **** 	{
 675:Middlewares/Third_Party/FreeRTOS/Source/event_groups.c **** 		/* Task has to wait for all the bits in uxBitsToWaitFor to be set.
 676:Middlewares/Third_Party/FreeRTOS/Source/event_groups.c **** 		Are they set already? */
 677:Middlewares/Third_Party/FreeRTOS/Source/event_groups.c **** 		if( ( uxCurrentEventBits & uxBitsToWaitFor ) == uxBitsToWaitFor )
  49              		.loc 1 677 3 is_stmt 1 view .LVU8
  50              		.loc 1 677 5 is_stmt 0 view .LVU9
  51 000a 31EA0003 		bics	r3, r1, r0
  52 000e 03D0     		beq	.L5
 658:Middlewares/Third_Party/FreeRTOS/Source/event_groups.c **** 
  53              		.loc 1 658 12 view .LVU10
  54 0010 0020     		movs	r0, #0
  55              	.LVL3:
 658:Middlewares/Third_Party/FreeRTOS/Source/event_groups.c **** 
  56              		.loc 1 658 12 view .LVU11
  57 0012 7047     		bx	lr
  58              	.LVL4:
  59              	.L4:
 666:Middlewares/Third_Party/FreeRTOS/Source/event_groups.c **** 		}
  60              		.loc 1 666 22 view .LVU12
ARM GAS  /var/folders/bp/hbn4m0qx5z54srgsq53w67zh0000gr/T//ccFnrHoI.s 			page 14


  61 0014 0120     		movs	r0, #1
  62              	.LVL5:
 666:Middlewares/Third_Party/FreeRTOS/Source/event_groups.c **** 		}
  63              		.loc 1 666 22 view .LVU13
  64 0016 7047     		bx	lr
  65              	.LVL6:
  66              	.L5:
 678:Middlewares/Third_Party/FreeRTOS/Source/event_groups.c **** 		{
 679:Middlewares/Third_Party/FreeRTOS/Source/event_groups.c **** 			xWaitConditionMet = pdTRUE;
  67              		.loc 1 679 22 view .LVU14
  68 0018 0120     		movs	r0, #1
  69              	.LVL7:
 680:Middlewares/Third_Party/FreeRTOS/Source/event_groups.c **** 		}
 681:Middlewares/Third_Party/FreeRTOS/Source/event_groups.c **** 		else
 682:Middlewares/Third_Party/FreeRTOS/Source/event_groups.c **** 		{
 683:Middlewares/Third_Party/FreeRTOS/Source/event_groups.c **** 			mtCOVERAGE_TEST_MARKER();
  70              		.loc 1 683 28 is_stmt 1 view .LVU15
 684:Middlewares/Third_Party/FreeRTOS/Source/event_groups.c **** 		}
 685:Middlewares/Third_Party/FreeRTOS/Source/event_groups.c **** 	}
 686:Middlewares/Third_Party/FreeRTOS/Source/event_groups.c **** 
 687:Middlewares/Third_Party/FreeRTOS/Source/event_groups.c **** 	return xWaitConditionMet;
  71              		.loc 1 687 2 view .LVU16
 688:Middlewares/Third_Party/FreeRTOS/Source/event_groups.c **** }
  72              		.loc 1 688 1 is_stmt 0 view .LVU17
  73 001a 7047     		bx	lr
  74              		.cfi_endproc
  75              	.LFE15:
  77              		.section	.text.xEventGroupCreateStatic,"ax",%progbits
  78              		.align	1
  79              		.global	xEventGroupCreateStatic
  80              		.syntax unified
  81              		.thumb
  82              		.thumb_func
  83              		.fpu fpv4-sp-d16
  85              	xEventGroupCreateStatic:
  86              	.LVL8:
  87              	.LFB4:
  94:Middlewares/Third_Party/FreeRTOS/Source/event_groups.c **** 	EventGroup_t *pxEventBits;
  88              		.loc 1 94 2 is_stmt 1 view -0
  89              		.cfi_startproc
  90              		@ args = 0, pretend = 0, frame = 8
  91              		@ frame_needed = 0, uses_anonymous_args = 0
  95:Middlewares/Third_Party/FreeRTOS/Source/event_groups.c **** 
  92              		.loc 1 95 2 view .LVU19
  98:Middlewares/Third_Party/FreeRTOS/Source/event_groups.c **** 
  93              		.loc 1 98 3 view .LVU20
  94 0000 80B1     		cbz	r0, .L13
  94:Middlewares/Third_Party/FreeRTOS/Source/event_groups.c **** 	EventGroup_t *pxEventBits;
  95              		.loc 1 94 2 is_stmt 0 discriminator 2 view .LVU21
  96 0002 10B5     		push	{r4, lr}
  97              	.LCFI0:
  98              		.cfi_def_cfa_offset 8
  99              		.cfi_offset 4, -8
 100              		.cfi_offset 14, -4
 101 0004 82B0     		sub	sp, sp, #8
 102              	.LCFI1:
 103              		.cfi_def_cfa_offset 16
ARM GAS  /var/folders/bp/hbn4m0qx5z54srgsq53w67zh0000gr/T//ccFnrHoI.s 			page 15


 104 0006 0446     		mov	r4, r0
  98:Middlewares/Third_Party/FreeRTOS/Source/event_groups.c **** 
 105              		.loc 1 98 37 is_stmt 1 discriminator 2 view .LVU22
 106              	.LBB36:
 105:Middlewares/Third_Party/FreeRTOS/Source/event_groups.c **** 			configASSERT( xSize == sizeof( EventGroup_t ) );
 107              		.loc 1 105 4 discriminator 2 view .LVU23
 105:Middlewares/Third_Party/FreeRTOS/Source/event_groups.c **** 			configASSERT( xSize == sizeof( EventGroup_t ) );
 108              		.loc 1 105 20 is_stmt 0 discriminator 2 view .LVU24
 109 0008 2023     		movs	r3, #32
 110 000a 0193     		str	r3, [sp, #4]
 106:Middlewares/Third_Party/FreeRTOS/Source/event_groups.c **** 		}
 111              		.loc 1 106 4 is_stmt 1 discriminator 2 view .LVU25
 112 000c 019B     		ldr	r3, [sp, #4]
 113 000e 202B     		cmp	r3, #32
 114 0010 11D0     		beq	.L9
 106:Middlewares/Third_Party/FreeRTOS/Source/event_groups.c **** 		}
 115              		.loc 1 106 4 view .LVU26
 116              	.LBB37:
 117              	.LBI37:
 118              		.file 2 "Middlewares/Third_Party/FreeRTOS/Source/portable/GCC/ARM_CM4F/portmacro.h"
   1:Middlewares/Third_Party/FreeRTOS/Source/portable/GCC/ARM_CM4F/portmacro.h **** /*
   2:Middlewares/Third_Party/FreeRTOS/Source/portable/GCC/ARM_CM4F/portmacro.h ****  * FreeRTOS Kernel V10.0.1
   3:Middlewares/Third_Party/FreeRTOS/Source/portable/GCC/ARM_CM4F/portmacro.h ****  * Copyright (C) 2017 Amazon.com, Inc. or its affiliates.  All Rights Reserved.
   4:Middlewares/Third_Party/FreeRTOS/Source/portable/GCC/ARM_CM4F/portmacro.h ****  *
   5:Middlewares/Third_Party/FreeRTOS/Source/portable/GCC/ARM_CM4F/portmacro.h ****  * Permission is hereby granted, free of charge, to any person obtaining a copy of
   6:Middlewares/Third_Party/FreeRTOS/Source/portable/GCC/ARM_CM4F/portmacro.h ****  * this software and associated documentation files (the "Software"), to deal in
   7:Middlewares/Third_Party/FreeRTOS/Source/portable/GCC/ARM_CM4F/portmacro.h ****  * the Software without restriction, including without limitation the rights to
   8:Middlewares/Third_Party/FreeRTOS/Source/portable/GCC/ARM_CM4F/portmacro.h ****  * use, copy, modify, merge, publish, distribute, sublicense, and/or sell copies of
   9:Middlewares/Third_Party/FreeRTOS/Source/portable/GCC/ARM_CM4F/portmacro.h ****  * the Software, and to permit persons to whom the Software is furnished to do so,
  10:Middlewares/Third_Party/FreeRTOS/Source/portable/GCC/ARM_CM4F/portmacro.h ****  * subject to the following conditions:
  11:Middlewares/Third_Party/FreeRTOS/Source/portable/GCC/ARM_CM4F/portmacro.h ****  *
  12:Middlewares/Third_Party/FreeRTOS/Source/portable/GCC/ARM_CM4F/portmacro.h ****  * The above copyright notice and this permission notice shall be included in all
  13:Middlewares/Third_Party/FreeRTOS/Source/portable/GCC/ARM_CM4F/portmacro.h ****  * copies or substantial portions of the Software.
  14:Middlewares/Third_Party/FreeRTOS/Source/portable/GCC/ARM_CM4F/portmacro.h ****  *
  15:Middlewares/Third_Party/FreeRTOS/Source/portable/GCC/ARM_CM4F/portmacro.h ****  * THE SOFTWARE IS PROVIDED "AS IS", WITHOUT WARRANTY OF ANY KIND, EXPRESS OR
  16:Middlewares/Third_Party/FreeRTOS/Source/portable/GCC/ARM_CM4F/portmacro.h ****  * IMPLIED, INCLUDING BUT NOT LIMITED TO THE WARRANTIES OF MERCHANTABILITY, FITNESS
  17:Middlewares/Third_Party/FreeRTOS/Source/portable/GCC/ARM_CM4F/portmacro.h ****  * FOR A PARTICULAR PURPOSE AND NONINFRINGEMENT. IN NO EVENT SHALL THE AUTHORS OR
  18:Middlewares/Third_Party/FreeRTOS/Source/portable/GCC/ARM_CM4F/portmacro.h ****  * COPYRIGHT HOLDERS BE LIABLE FOR ANY CLAIM, DAMAGES OR OTHER LIABILITY, WHETHER
  19:Middlewares/Third_Party/FreeRTOS/Source/portable/GCC/ARM_CM4F/portmacro.h ****  * IN AN ACTION OF CONTRACT, TORT OR OTHERWISE, ARISING FROM, OUT OF OR IN
  20:Middlewares/Third_Party/FreeRTOS/Source/portable/GCC/ARM_CM4F/portmacro.h ****  * CONNECTION WITH THE SOFTWARE OR THE USE OR OTHER DEALINGS IN THE SOFTWARE.
  21:Middlewares/Third_Party/FreeRTOS/Source/portable/GCC/ARM_CM4F/portmacro.h ****  *
  22:Middlewares/Third_Party/FreeRTOS/Source/portable/GCC/ARM_CM4F/portmacro.h ****  * http://www.FreeRTOS.org
  23:Middlewares/Third_Party/FreeRTOS/Source/portable/GCC/ARM_CM4F/portmacro.h ****  * http://aws.amazon.com/freertos
  24:Middlewares/Third_Party/FreeRTOS/Source/portable/GCC/ARM_CM4F/portmacro.h ****  *
  25:Middlewares/Third_Party/FreeRTOS/Source/portable/GCC/ARM_CM4F/portmacro.h ****  * 1 tab == 4 spaces!
  26:Middlewares/Third_Party/FreeRTOS/Source/portable/GCC/ARM_CM4F/portmacro.h ****  */
  27:Middlewares/Third_Party/FreeRTOS/Source/portable/GCC/ARM_CM4F/portmacro.h **** 
  28:Middlewares/Third_Party/FreeRTOS/Source/portable/GCC/ARM_CM4F/portmacro.h **** 
  29:Middlewares/Third_Party/FreeRTOS/Source/portable/GCC/ARM_CM4F/portmacro.h **** #ifndef PORTMACRO_H
  30:Middlewares/Third_Party/FreeRTOS/Source/portable/GCC/ARM_CM4F/portmacro.h **** #define PORTMACRO_H
  31:Middlewares/Third_Party/FreeRTOS/Source/portable/GCC/ARM_CM4F/portmacro.h **** 
  32:Middlewares/Third_Party/FreeRTOS/Source/portable/GCC/ARM_CM4F/portmacro.h **** #ifdef __cplusplus
  33:Middlewares/Third_Party/FreeRTOS/Source/portable/GCC/ARM_CM4F/portmacro.h **** extern "C" {
  34:Middlewares/Third_Party/FreeRTOS/Source/portable/GCC/ARM_CM4F/portmacro.h **** #endif
  35:Middlewares/Third_Party/FreeRTOS/Source/portable/GCC/ARM_CM4F/portmacro.h **** 
  36:Middlewares/Third_Party/FreeRTOS/Source/portable/GCC/ARM_CM4F/portmacro.h **** /*-----------------------------------------------------------
  37:Middlewares/Third_Party/FreeRTOS/Source/portable/GCC/ARM_CM4F/portmacro.h ****  * Port specific definitions.
ARM GAS  /var/folders/bp/hbn4m0qx5z54srgsq53w67zh0000gr/T//ccFnrHoI.s 			page 16


  38:Middlewares/Third_Party/FreeRTOS/Source/portable/GCC/ARM_CM4F/portmacro.h ****  *
  39:Middlewares/Third_Party/FreeRTOS/Source/portable/GCC/ARM_CM4F/portmacro.h ****  * The settings in this file configure FreeRTOS correctly for the
  40:Middlewares/Third_Party/FreeRTOS/Source/portable/GCC/ARM_CM4F/portmacro.h ****  * given hardware and compiler.
  41:Middlewares/Third_Party/FreeRTOS/Source/portable/GCC/ARM_CM4F/portmacro.h ****  *
  42:Middlewares/Third_Party/FreeRTOS/Source/portable/GCC/ARM_CM4F/portmacro.h ****  * These settings should not be altered.
  43:Middlewares/Third_Party/FreeRTOS/Source/portable/GCC/ARM_CM4F/portmacro.h ****  *-----------------------------------------------------------
  44:Middlewares/Third_Party/FreeRTOS/Source/portable/GCC/ARM_CM4F/portmacro.h ****  */
  45:Middlewares/Third_Party/FreeRTOS/Source/portable/GCC/ARM_CM4F/portmacro.h **** 
  46:Middlewares/Third_Party/FreeRTOS/Source/portable/GCC/ARM_CM4F/portmacro.h **** /* Type definitions. */
  47:Middlewares/Third_Party/FreeRTOS/Source/portable/GCC/ARM_CM4F/portmacro.h **** #define portCHAR		char
  48:Middlewares/Third_Party/FreeRTOS/Source/portable/GCC/ARM_CM4F/portmacro.h **** #define portFLOAT		float
  49:Middlewares/Third_Party/FreeRTOS/Source/portable/GCC/ARM_CM4F/portmacro.h **** #define portDOUBLE		double
  50:Middlewares/Third_Party/FreeRTOS/Source/portable/GCC/ARM_CM4F/portmacro.h **** #define portLONG		long
  51:Middlewares/Third_Party/FreeRTOS/Source/portable/GCC/ARM_CM4F/portmacro.h **** #define portSHORT		short
  52:Middlewares/Third_Party/FreeRTOS/Source/portable/GCC/ARM_CM4F/portmacro.h **** #define portSTACK_TYPE	uint32_t
  53:Middlewares/Third_Party/FreeRTOS/Source/portable/GCC/ARM_CM4F/portmacro.h **** #define portBASE_TYPE	long
  54:Middlewares/Third_Party/FreeRTOS/Source/portable/GCC/ARM_CM4F/portmacro.h **** 
  55:Middlewares/Third_Party/FreeRTOS/Source/portable/GCC/ARM_CM4F/portmacro.h **** typedef portSTACK_TYPE StackType_t;
  56:Middlewares/Third_Party/FreeRTOS/Source/portable/GCC/ARM_CM4F/portmacro.h **** typedef long BaseType_t;
  57:Middlewares/Third_Party/FreeRTOS/Source/portable/GCC/ARM_CM4F/portmacro.h **** typedef unsigned long UBaseType_t;
  58:Middlewares/Third_Party/FreeRTOS/Source/portable/GCC/ARM_CM4F/portmacro.h **** 
  59:Middlewares/Third_Party/FreeRTOS/Source/portable/GCC/ARM_CM4F/portmacro.h **** #if( configUSE_16_BIT_TICKS == 1 )
  60:Middlewares/Third_Party/FreeRTOS/Source/portable/GCC/ARM_CM4F/portmacro.h **** 	typedef uint16_t TickType_t;
  61:Middlewares/Third_Party/FreeRTOS/Source/portable/GCC/ARM_CM4F/portmacro.h **** 	#define portMAX_DELAY ( TickType_t ) 0xffff
  62:Middlewares/Third_Party/FreeRTOS/Source/portable/GCC/ARM_CM4F/portmacro.h **** #else
  63:Middlewares/Third_Party/FreeRTOS/Source/portable/GCC/ARM_CM4F/portmacro.h **** 	typedef uint32_t TickType_t;
  64:Middlewares/Third_Party/FreeRTOS/Source/portable/GCC/ARM_CM4F/portmacro.h **** 	#define portMAX_DELAY ( TickType_t ) 0xffffffffUL
  65:Middlewares/Third_Party/FreeRTOS/Source/portable/GCC/ARM_CM4F/portmacro.h **** 
  66:Middlewares/Third_Party/FreeRTOS/Source/portable/GCC/ARM_CM4F/portmacro.h **** 	/* 32-bit tick type on a 32-bit architecture, so reads of the tick count do
  67:Middlewares/Third_Party/FreeRTOS/Source/portable/GCC/ARM_CM4F/portmacro.h **** 	not need to be guarded with a critical section. */
  68:Middlewares/Third_Party/FreeRTOS/Source/portable/GCC/ARM_CM4F/portmacro.h **** 	#define portTICK_TYPE_IS_ATOMIC 1
  69:Middlewares/Third_Party/FreeRTOS/Source/portable/GCC/ARM_CM4F/portmacro.h **** #endif
  70:Middlewares/Third_Party/FreeRTOS/Source/portable/GCC/ARM_CM4F/portmacro.h **** /*-----------------------------------------------------------*/
  71:Middlewares/Third_Party/FreeRTOS/Source/portable/GCC/ARM_CM4F/portmacro.h **** 
  72:Middlewares/Third_Party/FreeRTOS/Source/portable/GCC/ARM_CM4F/portmacro.h **** /* Architecture specifics. */
  73:Middlewares/Third_Party/FreeRTOS/Source/portable/GCC/ARM_CM4F/portmacro.h **** #define portSTACK_GROWTH			( -1 )
  74:Middlewares/Third_Party/FreeRTOS/Source/portable/GCC/ARM_CM4F/portmacro.h **** #define portTICK_PERIOD_MS			( ( TickType_t ) 1000 / configTICK_RATE_HZ )
  75:Middlewares/Third_Party/FreeRTOS/Source/portable/GCC/ARM_CM4F/portmacro.h **** #define portBYTE_ALIGNMENT			8
  76:Middlewares/Third_Party/FreeRTOS/Source/portable/GCC/ARM_CM4F/portmacro.h **** /*-----------------------------------------------------------*/
  77:Middlewares/Third_Party/FreeRTOS/Source/portable/GCC/ARM_CM4F/portmacro.h **** 
  78:Middlewares/Third_Party/FreeRTOS/Source/portable/GCC/ARM_CM4F/portmacro.h **** /* Scheduler utilities. */
  79:Middlewares/Third_Party/FreeRTOS/Source/portable/GCC/ARM_CM4F/portmacro.h **** #define portYIELD() 															\
  80:Middlewares/Third_Party/FreeRTOS/Source/portable/GCC/ARM_CM4F/portmacro.h **** {																				\
  81:Middlewares/Third_Party/FreeRTOS/Source/portable/GCC/ARM_CM4F/portmacro.h **** 	/* Set a PendSV to request a context switch. */								\
  82:Middlewares/Third_Party/FreeRTOS/Source/portable/GCC/ARM_CM4F/portmacro.h **** 	portNVIC_INT_CTRL_REG = portNVIC_PENDSVSET_BIT;								\
  83:Middlewares/Third_Party/FreeRTOS/Source/portable/GCC/ARM_CM4F/portmacro.h **** 																				\
  84:Middlewares/Third_Party/FreeRTOS/Source/portable/GCC/ARM_CM4F/portmacro.h **** 	/* Barriers are normally not required but do ensure the code is completely	\
  85:Middlewares/Third_Party/FreeRTOS/Source/portable/GCC/ARM_CM4F/portmacro.h **** 	within the specified behaviour for the architecture. */						\
  86:Middlewares/Third_Party/FreeRTOS/Source/portable/GCC/ARM_CM4F/portmacro.h **** 	__asm volatile( "dsb" ::: "memory" );										\
  87:Middlewares/Third_Party/FreeRTOS/Source/portable/GCC/ARM_CM4F/portmacro.h **** 	__asm volatile( "isb" );													\
  88:Middlewares/Third_Party/FreeRTOS/Source/portable/GCC/ARM_CM4F/portmacro.h **** }
  89:Middlewares/Third_Party/FreeRTOS/Source/portable/GCC/ARM_CM4F/portmacro.h **** 
  90:Middlewares/Third_Party/FreeRTOS/Source/portable/GCC/ARM_CM4F/portmacro.h **** #define portNVIC_INT_CTRL_REG		( * ( ( volatile uint32_t * ) 0xe000ed04 ) )
  91:Middlewares/Third_Party/FreeRTOS/Source/portable/GCC/ARM_CM4F/portmacro.h **** #define portNVIC_PENDSVSET_BIT		( 1UL << 28UL )
  92:Middlewares/Third_Party/FreeRTOS/Source/portable/GCC/ARM_CM4F/portmacro.h **** #define portEND_SWITCHING_ISR( xSwitchRequired ) if( xSwitchRequired != pdFALSE ) portYIELD()
  93:Middlewares/Third_Party/FreeRTOS/Source/portable/GCC/ARM_CM4F/portmacro.h **** #define portYIELD_FROM_ISR( x ) portEND_SWITCHING_ISR( x )
  94:Middlewares/Third_Party/FreeRTOS/Source/portable/GCC/ARM_CM4F/portmacro.h **** /*-----------------------------------------------------------*/
ARM GAS  /var/folders/bp/hbn4m0qx5z54srgsq53w67zh0000gr/T//ccFnrHoI.s 			page 17


  95:Middlewares/Third_Party/FreeRTOS/Source/portable/GCC/ARM_CM4F/portmacro.h **** 
  96:Middlewares/Third_Party/FreeRTOS/Source/portable/GCC/ARM_CM4F/portmacro.h **** /* Critical section management. */
  97:Middlewares/Third_Party/FreeRTOS/Source/portable/GCC/ARM_CM4F/portmacro.h **** extern void vPortEnterCritical( void );
  98:Middlewares/Third_Party/FreeRTOS/Source/portable/GCC/ARM_CM4F/portmacro.h **** extern void vPortExitCritical( void );
  99:Middlewares/Third_Party/FreeRTOS/Source/portable/GCC/ARM_CM4F/portmacro.h **** #define portSET_INTERRUPT_MASK_FROM_ISR()		ulPortRaiseBASEPRI()
 100:Middlewares/Third_Party/FreeRTOS/Source/portable/GCC/ARM_CM4F/portmacro.h **** #define portCLEAR_INTERRUPT_MASK_FROM_ISR(x)	vPortSetBASEPRI(x)
 101:Middlewares/Third_Party/FreeRTOS/Source/portable/GCC/ARM_CM4F/portmacro.h **** #define portDISABLE_INTERRUPTS()				vPortRaiseBASEPRI()
 102:Middlewares/Third_Party/FreeRTOS/Source/portable/GCC/ARM_CM4F/portmacro.h **** #define portENABLE_INTERRUPTS()					vPortSetBASEPRI(0)
 103:Middlewares/Third_Party/FreeRTOS/Source/portable/GCC/ARM_CM4F/portmacro.h **** #define portENTER_CRITICAL()					vPortEnterCritical()
 104:Middlewares/Third_Party/FreeRTOS/Source/portable/GCC/ARM_CM4F/portmacro.h **** #define portEXIT_CRITICAL()						vPortExitCritical()
 105:Middlewares/Third_Party/FreeRTOS/Source/portable/GCC/ARM_CM4F/portmacro.h **** 
 106:Middlewares/Third_Party/FreeRTOS/Source/portable/GCC/ARM_CM4F/portmacro.h **** /*-----------------------------------------------------------*/
 107:Middlewares/Third_Party/FreeRTOS/Source/portable/GCC/ARM_CM4F/portmacro.h **** 
 108:Middlewares/Third_Party/FreeRTOS/Source/portable/GCC/ARM_CM4F/portmacro.h **** /* Task function macros as described on the FreeRTOS.org WEB site.  These are
 109:Middlewares/Third_Party/FreeRTOS/Source/portable/GCC/ARM_CM4F/portmacro.h **** not necessary for to use this port.  They are defined so the common demo files
 110:Middlewares/Third_Party/FreeRTOS/Source/portable/GCC/ARM_CM4F/portmacro.h **** (which build with all the ports) will build. */
 111:Middlewares/Third_Party/FreeRTOS/Source/portable/GCC/ARM_CM4F/portmacro.h **** #define portTASK_FUNCTION_PROTO( vFunction, pvParameters ) void vFunction( void *pvParameters )
 112:Middlewares/Third_Party/FreeRTOS/Source/portable/GCC/ARM_CM4F/portmacro.h **** #define portTASK_FUNCTION( vFunction, pvParameters ) void vFunction( void *pvParameters )
 113:Middlewares/Third_Party/FreeRTOS/Source/portable/GCC/ARM_CM4F/portmacro.h **** /*-----------------------------------------------------------*/
 114:Middlewares/Third_Party/FreeRTOS/Source/portable/GCC/ARM_CM4F/portmacro.h **** 
 115:Middlewares/Third_Party/FreeRTOS/Source/portable/GCC/ARM_CM4F/portmacro.h **** /* Tickless idle/low power functionality. */
 116:Middlewares/Third_Party/FreeRTOS/Source/portable/GCC/ARM_CM4F/portmacro.h **** #ifndef portSUPPRESS_TICKS_AND_SLEEP
 117:Middlewares/Third_Party/FreeRTOS/Source/portable/GCC/ARM_CM4F/portmacro.h **** 	extern void vPortSuppressTicksAndSleep( TickType_t xExpectedIdleTime );
 118:Middlewares/Third_Party/FreeRTOS/Source/portable/GCC/ARM_CM4F/portmacro.h **** 	#define portSUPPRESS_TICKS_AND_SLEEP( xExpectedIdleTime ) vPortSuppressTicksAndSleep( xExpectedIdl
 119:Middlewares/Third_Party/FreeRTOS/Source/portable/GCC/ARM_CM4F/portmacro.h **** #endif
 120:Middlewares/Third_Party/FreeRTOS/Source/portable/GCC/ARM_CM4F/portmacro.h **** /*-----------------------------------------------------------*/
 121:Middlewares/Third_Party/FreeRTOS/Source/portable/GCC/ARM_CM4F/portmacro.h **** 
 122:Middlewares/Third_Party/FreeRTOS/Source/portable/GCC/ARM_CM4F/portmacro.h **** /* Architecture specific optimisations. */
 123:Middlewares/Third_Party/FreeRTOS/Source/portable/GCC/ARM_CM4F/portmacro.h **** #ifndef configUSE_PORT_OPTIMISED_TASK_SELECTION
 124:Middlewares/Third_Party/FreeRTOS/Source/portable/GCC/ARM_CM4F/portmacro.h **** 	#define configUSE_PORT_OPTIMISED_TASK_SELECTION 1
 125:Middlewares/Third_Party/FreeRTOS/Source/portable/GCC/ARM_CM4F/portmacro.h **** #endif
 126:Middlewares/Third_Party/FreeRTOS/Source/portable/GCC/ARM_CM4F/portmacro.h **** 
 127:Middlewares/Third_Party/FreeRTOS/Source/portable/GCC/ARM_CM4F/portmacro.h **** #if configUSE_PORT_OPTIMISED_TASK_SELECTION == 1
 128:Middlewares/Third_Party/FreeRTOS/Source/portable/GCC/ARM_CM4F/portmacro.h **** 
 129:Middlewares/Third_Party/FreeRTOS/Source/portable/GCC/ARM_CM4F/portmacro.h **** 	/* Generic helper function. */
 130:Middlewares/Third_Party/FreeRTOS/Source/portable/GCC/ARM_CM4F/portmacro.h **** 	__attribute__( ( always_inline ) ) static inline uint8_t ucPortCountLeadingZeros( uint32_t ulBitma
 131:Middlewares/Third_Party/FreeRTOS/Source/portable/GCC/ARM_CM4F/portmacro.h **** 	{
 132:Middlewares/Third_Party/FreeRTOS/Source/portable/GCC/ARM_CM4F/portmacro.h **** 	uint8_t ucReturn;
 133:Middlewares/Third_Party/FreeRTOS/Source/portable/GCC/ARM_CM4F/portmacro.h **** 
 134:Middlewares/Third_Party/FreeRTOS/Source/portable/GCC/ARM_CM4F/portmacro.h **** 		__asm volatile ( "clz %0, %1" : "=r" ( ucReturn ) : "r" ( ulBitmap ) : "memory" );
 135:Middlewares/Third_Party/FreeRTOS/Source/portable/GCC/ARM_CM4F/portmacro.h **** 		return ucReturn;
 136:Middlewares/Third_Party/FreeRTOS/Source/portable/GCC/ARM_CM4F/portmacro.h **** 	}
 137:Middlewares/Third_Party/FreeRTOS/Source/portable/GCC/ARM_CM4F/portmacro.h **** 
 138:Middlewares/Third_Party/FreeRTOS/Source/portable/GCC/ARM_CM4F/portmacro.h **** 	/* Check the configuration. */
 139:Middlewares/Third_Party/FreeRTOS/Source/portable/GCC/ARM_CM4F/portmacro.h **** 	#if( configMAX_PRIORITIES > 32 )
 140:Middlewares/Third_Party/FreeRTOS/Source/portable/GCC/ARM_CM4F/portmacro.h **** 		#error configUSE_PORT_OPTIMISED_TASK_SELECTION can only be set to 1 when configMAX_PRIORITIES is 
 141:Middlewares/Third_Party/FreeRTOS/Source/portable/GCC/ARM_CM4F/portmacro.h **** 	#endif
 142:Middlewares/Third_Party/FreeRTOS/Source/portable/GCC/ARM_CM4F/portmacro.h **** 
 143:Middlewares/Third_Party/FreeRTOS/Source/portable/GCC/ARM_CM4F/portmacro.h **** 	/* Store/clear the ready priorities in a bit map. */
 144:Middlewares/Third_Party/FreeRTOS/Source/portable/GCC/ARM_CM4F/portmacro.h **** 	#define portRECORD_READY_PRIORITY( uxPriority, uxReadyPriorities ) ( uxReadyPriorities ) |= ( 1UL 
 145:Middlewares/Third_Party/FreeRTOS/Source/portable/GCC/ARM_CM4F/portmacro.h **** 	#define portRESET_READY_PRIORITY( uxPriority, uxReadyPriorities ) ( uxReadyPriorities ) &= ~( 1UL 
 146:Middlewares/Third_Party/FreeRTOS/Source/portable/GCC/ARM_CM4F/portmacro.h **** 
 147:Middlewares/Third_Party/FreeRTOS/Source/portable/GCC/ARM_CM4F/portmacro.h **** 	/*-----------------------------------------------------------*/
 148:Middlewares/Third_Party/FreeRTOS/Source/portable/GCC/ARM_CM4F/portmacro.h **** 
 149:Middlewares/Third_Party/FreeRTOS/Source/portable/GCC/ARM_CM4F/portmacro.h **** 	#define portGET_HIGHEST_PRIORITY( uxTopPriority, uxReadyPriorities ) uxTopPriority = ( 31UL - ( ui
 150:Middlewares/Third_Party/FreeRTOS/Source/portable/GCC/ARM_CM4F/portmacro.h **** 
 151:Middlewares/Third_Party/FreeRTOS/Source/portable/GCC/ARM_CM4F/portmacro.h **** #endif /* configUSE_PORT_OPTIMISED_TASK_SELECTION */
ARM GAS  /var/folders/bp/hbn4m0qx5z54srgsq53w67zh0000gr/T//ccFnrHoI.s 			page 18


 152:Middlewares/Third_Party/FreeRTOS/Source/portable/GCC/ARM_CM4F/portmacro.h **** 
 153:Middlewares/Third_Party/FreeRTOS/Source/portable/GCC/ARM_CM4F/portmacro.h **** /*-----------------------------------------------------------*/
 154:Middlewares/Third_Party/FreeRTOS/Source/portable/GCC/ARM_CM4F/portmacro.h **** 
 155:Middlewares/Third_Party/FreeRTOS/Source/portable/GCC/ARM_CM4F/portmacro.h **** #ifdef configASSERT
 156:Middlewares/Third_Party/FreeRTOS/Source/portable/GCC/ARM_CM4F/portmacro.h **** 	void vPortValidateInterruptPriority( void );
 157:Middlewares/Third_Party/FreeRTOS/Source/portable/GCC/ARM_CM4F/portmacro.h **** 	#define portASSERT_IF_INTERRUPT_PRIORITY_INVALID() 	vPortValidateInterruptPriority()
 158:Middlewares/Third_Party/FreeRTOS/Source/portable/GCC/ARM_CM4F/portmacro.h **** #endif
 159:Middlewares/Third_Party/FreeRTOS/Source/portable/GCC/ARM_CM4F/portmacro.h **** 
 160:Middlewares/Third_Party/FreeRTOS/Source/portable/GCC/ARM_CM4F/portmacro.h **** /* portNOP() is not required by this port. */
 161:Middlewares/Third_Party/FreeRTOS/Source/portable/GCC/ARM_CM4F/portmacro.h **** #define portNOP()
 162:Middlewares/Third_Party/FreeRTOS/Source/portable/GCC/ARM_CM4F/portmacro.h **** 
 163:Middlewares/Third_Party/FreeRTOS/Source/portable/GCC/ARM_CM4F/portmacro.h **** #define portINLINE	__inline
 164:Middlewares/Third_Party/FreeRTOS/Source/portable/GCC/ARM_CM4F/portmacro.h **** 
 165:Middlewares/Third_Party/FreeRTOS/Source/portable/GCC/ARM_CM4F/portmacro.h **** #ifndef portFORCE_INLINE
 166:Middlewares/Third_Party/FreeRTOS/Source/portable/GCC/ARM_CM4F/portmacro.h **** 	#define portFORCE_INLINE inline __attribute__(( always_inline))
 167:Middlewares/Third_Party/FreeRTOS/Source/portable/GCC/ARM_CM4F/portmacro.h **** #endif
 168:Middlewares/Third_Party/FreeRTOS/Source/portable/GCC/ARM_CM4F/portmacro.h **** 
 169:Middlewares/Third_Party/FreeRTOS/Source/portable/GCC/ARM_CM4F/portmacro.h **** portFORCE_INLINE static BaseType_t xPortIsInsideInterrupt( void )
 170:Middlewares/Third_Party/FreeRTOS/Source/portable/GCC/ARM_CM4F/portmacro.h **** {
 171:Middlewares/Third_Party/FreeRTOS/Source/portable/GCC/ARM_CM4F/portmacro.h **** uint32_t ulCurrentInterrupt;
 172:Middlewares/Third_Party/FreeRTOS/Source/portable/GCC/ARM_CM4F/portmacro.h **** BaseType_t xReturn;
 173:Middlewares/Third_Party/FreeRTOS/Source/portable/GCC/ARM_CM4F/portmacro.h **** 
 174:Middlewares/Third_Party/FreeRTOS/Source/portable/GCC/ARM_CM4F/portmacro.h **** 	/* Obtain the number of the currently executing interrupt. */
 175:Middlewares/Third_Party/FreeRTOS/Source/portable/GCC/ARM_CM4F/portmacro.h **** 	__asm volatile( "mrs %0, ipsr" : "=r"( ulCurrentInterrupt ) :: "memory" );
 176:Middlewares/Third_Party/FreeRTOS/Source/portable/GCC/ARM_CM4F/portmacro.h **** 
 177:Middlewares/Third_Party/FreeRTOS/Source/portable/GCC/ARM_CM4F/portmacro.h **** 	if( ulCurrentInterrupt == 0 )
 178:Middlewares/Third_Party/FreeRTOS/Source/portable/GCC/ARM_CM4F/portmacro.h **** 	{
 179:Middlewares/Third_Party/FreeRTOS/Source/portable/GCC/ARM_CM4F/portmacro.h **** 		xReturn = pdFALSE;
 180:Middlewares/Third_Party/FreeRTOS/Source/portable/GCC/ARM_CM4F/portmacro.h **** 	}
 181:Middlewares/Third_Party/FreeRTOS/Source/portable/GCC/ARM_CM4F/portmacro.h **** 	else
 182:Middlewares/Third_Party/FreeRTOS/Source/portable/GCC/ARM_CM4F/portmacro.h **** 	{
 183:Middlewares/Third_Party/FreeRTOS/Source/portable/GCC/ARM_CM4F/portmacro.h **** 		xReturn = pdTRUE;
 184:Middlewares/Third_Party/FreeRTOS/Source/portable/GCC/ARM_CM4F/portmacro.h **** 	}
 185:Middlewares/Third_Party/FreeRTOS/Source/portable/GCC/ARM_CM4F/portmacro.h **** 
 186:Middlewares/Third_Party/FreeRTOS/Source/portable/GCC/ARM_CM4F/portmacro.h **** 	return xReturn;
 187:Middlewares/Third_Party/FreeRTOS/Source/portable/GCC/ARM_CM4F/portmacro.h **** }
 188:Middlewares/Third_Party/FreeRTOS/Source/portable/GCC/ARM_CM4F/portmacro.h **** 
 189:Middlewares/Third_Party/FreeRTOS/Source/portable/GCC/ARM_CM4F/portmacro.h **** /*-----------------------------------------------------------*/
 190:Middlewares/Third_Party/FreeRTOS/Source/portable/GCC/ARM_CM4F/portmacro.h **** 
 191:Middlewares/Third_Party/FreeRTOS/Source/portable/GCC/ARM_CM4F/portmacro.h **** portFORCE_INLINE static void vPortRaiseBASEPRI( void )
 119              		.loc 2 191 30 view .LVU27
 120              	.LBB38:
 192:Middlewares/Third_Party/FreeRTOS/Source/portable/GCC/ARM_CM4F/portmacro.h **** {
 193:Middlewares/Third_Party/FreeRTOS/Source/portable/GCC/ARM_CM4F/portmacro.h **** uint32_t ulNewBASEPRI;
 121              		.loc 2 193 1 view .LVU28
 194:Middlewares/Third_Party/FreeRTOS/Source/portable/GCC/ARM_CM4F/portmacro.h **** 
 195:Middlewares/Third_Party/FreeRTOS/Source/portable/GCC/ARM_CM4F/portmacro.h **** 	__asm volatile
 122              		.loc 2 195 2 view .LVU29
 123              		.syntax unified
 124              	@ 195 "Middlewares/Third_Party/FreeRTOS/Source/portable/GCC/ARM_CM4F/portmacro.h" 1
 125 0012 4FF05003 			mov r3, #80												
 126 0016 83F31188 		msr basepri, r3											
 127 001a BFF36F8F 		isb														
 128 001e BFF34F8F 		dsb														
 129              	
 130              	@ 0 "" 2
 131              	.LVL9:
ARM GAS  /var/folders/bp/hbn4m0qx5z54srgsq53w67zh0000gr/T//ccFnrHoI.s 			page 19


 132              		.thumb
 133              		.syntax unified
 134              	.L10:
 135              		.loc 2 195 2 is_stmt 0 view .LVU30
 136              	.LBE38:
 137              	.LBE37:
 106:Middlewares/Third_Party/FreeRTOS/Source/event_groups.c **** 		}
 138              		.loc 1 106 4 is_stmt 1 discriminator 2 view .LVU31
 106:Middlewares/Third_Party/FreeRTOS/Source/event_groups.c **** 		}
 139              		.loc 1 106 4 discriminator 2 view .LVU32
 106:Middlewares/Third_Party/FreeRTOS/Source/event_groups.c **** 		}
 140              		.loc 1 106 4 discriminator 2 view .LVU33
 141 0022 FEE7     		b	.L10
 142              	.L13:
 143              	.LCFI2:
 144              		.cfi_def_cfa_offset 0
 145              		.cfi_restore 4
 146              		.cfi_restore 14
 106:Middlewares/Third_Party/FreeRTOS/Source/event_groups.c **** 		}
 147              		.loc 1 106 4 is_stmt 0 discriminator 2 view .LVU34
 148              	.LBE36:
  98:Middlewares/Third_Party/FreeRTOS/Source/event_groups.c **** 
 149              		.loc 1 98 3 is_stmt 1 view .LVU35
 150              	.LBB39:
 151              	.LBI39:
 191:Middlewares/Third_Party/FreeRTOS/Source/portable/GCC/ARM_CM4F/portmacro.h **** {
 152              		.loc 2 191 30 view .LVU36
 153              	.LBB40:
 193:Middlewares/Third_Party/FreeRTOS/Source/portable/GCC/ARM_CM4F/portmacro.h **** 
 154              		.loc 2 193 1 view .LVU37
 155              		.loc 2 195 2 view .LVU38
 156              		.syntax unified
 157              	@ 195 "Middlewares/Third_Party/FreeRTOS/Source/portable/GCC/ARM_CM4F/portmacro.h" 1
 158 0024 4FF05003 			mov r3, #80												
 159 0028 83F31188 		msr basepri, r3											
 160 002c BFF36F8F 		isb														
 161 0030 BFF34F8F 		dsb														
 162              	
 163              	@ 0 "" 2
 164              	.LVL10:
 165              		.thumb
 166              		.syntax unified
 167              	.L8:
 168              		.loc 2 195 2 is_stmt 0 view .LVU39
 169              	.LBE40:
 170              	.LBE39:
  98:Middlewares/Third_Party/FreeRTOS/Source/event_groups.c **** 
 171              		.loc 1 98 3 is_stmt 1 discriminator 1 view .LVU40
  98:Middlewares/Third_Party/FreeRTOS/Source/event_groups.c **** 
 172              		.loc 1 98 3 discriminator 1 view .LVU41
  98:Middlewares/Third_Party/FreeRTOS/Source/event_groups.c **** 
 173              		.loc 1 98 3 discriminator 1 view .LVU42
 174 0034 FEE7     		b	.L8
 175              	.L9:
 176              	.LCFI3:
 177              		.cfi_def_cfa_offset 16
 178              		.cfi_offset 4, -8
ARM GAS  /var/folders/bp/hbn4m0qx5z54srgsq53w67zh0000gr/T//ccFnrHoI.s 			page 20


 179              		.cfi_offset 14, -4
 180              	.LBB41:
 106:Middlewares/Third_Party/FreeRTOS/Source/event_groups.c **** 		}
 181              		.loc 1 106 51 view .LVU43
 182              	.LBE41:
 111:Middlewares/Third_Party/FreeRTOS/Source/event_groups.c **** 
 183              		.loc 1 111 3 view .LVU44
 184              	.LVL11:
 113:Middlewares/Third_Party/FreeRTOS/Source/event_groups.c **** 		{
 185              		.loc 1 113 3 view .LVU45
 115:Middlewares/Third_Party/FreeRTOS/Source/event_groups.c **** 			vListInitialise( &( pxEventBits->xTasksWaitingForBits ) );
 186              		.loc 1 115 4 view .LVU46
 115:Middlewares/Third_Party/FreeRTOS/Source/event_groups.c **** 			vListInitialise( &( pxEventBits->xTasksWaitingForBits ) );
 187              		.loc 1 115 29 is_stmt 0 view .LVU47
 188 0036 0023     		movs	r3, #0
 189 0038 40F8043B 		str	r3, [r0], #4
 190              	.LVL12:
 116:Middlewares/Third_Party/FreeRTOS/Source/event_groups.c **** 
 191              		.loc 1 116 4 is_stmt 1 view .LVU48
 192 003c FFF7FEFF 		bl	vListInitialise
 193              	.LVL13:
 123:Middlewares/Third_Party/FreeRTOS/Source/event_groups.c **** 			}
 194              		.loc 1 123 5 view .LVU49
 123:Middlewares/Third_Party/FreeRTOS/Source/event_groups.c **** 			}
 195              		.loc 1 123 40 is_stmt 0 view .LVU50
 196 0040 0123     		movs	r3, #1
 197 0042 2377     		strb	r3, [r4, #28]
 127:Middlewares/Third_Party/FreeRTOS/Source/event_groups.c **** 		}
 198              		.loc 1 127 42 is_stmt 1 view .LVU51
 131:Middlewares/Third_Party/FreeRTOS/Source/event_groups.c **** 		}
 199              		.loc 1 131 36 view .LVU52
 134:Middlewares/Third_Party/FreeRTOS/Source/event_groups.c **** 	}
 200              		.loc 1 134 3 view .LVU53
 135:Middlewares/Third_Party/FreeRTOS/Source/event_groups.c **** 
 201              		.loc 1 135 2 is_stmt 0 view .LVU54
 202 0044 2046     		mov	r0, r4
 203 0046 02B0     		add	sp, sp, #8
 204              	.LCFI4:
 205              		.cfi_def_cfa_offset 8
 206              		@ sp needed
 207 0048 10BD     		pop	{r4, pc}
 135:Middlewares/Third_Party/FreeRTOS/Source/event_groups.c **** 
 208              		.loc 1 135 2 view .LVU55
 209              		.cfi_endproc
 210              	.LFE4:
 212              		.section	.text.xEventGroupCreate,"ax",%progbits
 213              		.align	1
 214              		.global	xEventGroupCreate
 215              		.syntax unified
 216              		.thumb
 217              		.thumb_func
 218              		.fpu fpv4-sp-d16
 220              	xEventGroupCreate:
 221              	.LFB5:
 143:Middlewares/Third_Party/FreeRTOS/Source/event_groups.c **** 	EventGroup_t *pxEventBits;
 222              		.loc 1 143 2 is_stmt 1 view -0
 223              		.cfi_startproc
ARM GAS  /var/folders/bp/hbn4m0qx5z54srgsq53w67zh0000gr/T//ccFnrHoI.s 			page 21


 224              		@ args = 0, pretend = 0, frame = 0
 225              		@ frame_needed = 0, uses_anonymous_args = 0
 226 0000 38B5     		push	{r3, r4, r5, lr}
 227              	.LCFI5:
 228              		.cfi_def_cfa_offset 16
 229              		.cfi_offset 3, -16
 230              		.cfi_offset 4, -12
 231              		.cfi_offset 5, -8
 232              		.cfi_offset 14, -4
 144:Middlewares/Third_Party/FreeRTOS/Source/event_groups.c **** 
 233              		.loc 1 144 2 view .LVU57
 147:Middlewares/Third_Party/FreeRTOS/Source/event_groups.c **** 
 234              		.loc 1 147 3 view .LVU58
 147:Middlewares/Third_Party/FreeRTOS/Source/event_groups.c **** 
 235              		.loc 1 147 36 is_stmt 0 view .LVU59
 236 0002 2020     		movs	r0, #32
 237 0004 FFF7FEFF 		bl	pvPortMalloc
 238              	.LVL14:
 149:Middlewares/Third_Party/FreeRTOS/Source/event_groups.c **** 		{
 239              		.loc 1 149 3 is_stmt 1 view .LVU60
 149:Middlewares/Third_Party/FreeRTOS/Source/event_groups.c **** 		{
 240              		.loc 1 149 5 is_stmt 0 view .LVU61
 241 0008 0446     		mov	r4, r0
 242 000a 28B1     		cbz	r0, .L14
 151:Middlewares/Third_Party/FreeRTOS/Source/event_groups.c **** 			vListInitialise( &( pxEventBits->xTasksWaitingForBits ) );
 243              		.loc 1 151 4 is_stmt 1 view .LVU62
 151:Middlewares/Third_Party/FreeRTOS/Source/event_groups.c **** 			vListInitialise( &( pxEventBits->xTasksWaitingForBits ) );
 244              		.loc 1 151 29 is_stmt 0 view .LVU63
 245 000c 0025     		movs	r5, #0
 246 000e 40F8045B 		str	r5, [r0], #4
 247              	.LVL15:
 152:Middlewares/Third_Party/FreeRTOS/Source/event_groups.c **** 
 248              		.loc 1 152 4 is_stmt 1 view .LVU64
 249 0012 FFF7FEFF 		bl	vListInitialise
 250              	.LVL16:
 159:Middlewares/Third_Party/FreeRTOS/Source/event_groups.c **** 			}
 251              		.loc 1 159 5 view .LVU65
 159:Middlewares/Third_Party/FreeRTOS/Source/event_groups.c **** 			}
 252              		.loc 1 159 40 is_stmt 0 view .LVU66
 253 0016 2577     		strb	r5, [r4, #28]
 163:Middlewares/Third_Party/FreeRTOS/Source/event_groups.c **** 		}
 254              		.loc 1 163 42 is_stmt 1 view .LVU67
 167:Middlewares/Third_Party/FreeRTOS/Source/event_groups.c **** 		}
 255              		.loc 1 167 36 view .LVU68
 170:Middlewares/Third_Party/FreeRTOS/Source/event_groups.c **** 	}
 256              		.loc 1 170 3 view .LVU69
 257              	.L14:
 171:Middlewares/Third_Party/FreeRTOS/Source/event_groups.c **** 
 258              		.loc 1 171 2 is_stmt 0 view .LVU70
 259 0018 2046     		mov	r0, r4
 260 001a 38BD     		pop	{r3, r4, r5, pc}
 171:Middlewares/Third_Party/FreeRTOS/Source/event_groups.c **** 
 261              		.loc 1 171 2 view .LVU71
 262              		.cfi_endproc
 263              	.LFE5:
 265              		.section	.text.xEventGroupWaitBits,"ax",%progbits
 266              		.align	1
ARM GAS  /var/folders/bp/hbn4m0qx5z54srgsq53w67zh0000gr/T//ccFnrHoI.s 			page 22


 267              		.global	xEventGroupWaitBits
 268              		.syntax unified
 269              		.thumb
 270              		.thumb_func
 271              		.fpu fpv4-sp-d16
 273              	xEventGroupWaitBits:
 274              	.LVL17:
 275              	.LFB7:
 297:Middlewares/Third_Party/FreeRTOS/Source/event_groups.c **** EventGroup_t *pxEventBits = ( EventGroup_t * ) xEventGroup;
 276              		.loc 1 297 1 is_stmt 1 view -0
 277              		.cfi_startproc
 278              		@ args = 4, pretend = 0, frame = 0
 279              		@ frame_needed = 0, uses_anonymous_args = 0
 297:Middlewares/Third_Party/FreeRTOS/Source/event_groups.c **** EventGroup_t *pxEventBits = ( EventGroup_t * ) xEventGroup;
 280              		.loc 1 297 1 is_stmt 0 view .LVU73
 281 0000 2DE9F843 		push	{r3, r4, r5, r6, r7, r8, r9, lr}
 282              	.LCFI6:
 283              		.cfi_def_cfa_offset 32
 284              		.cfi_offset 3, -32
 285              		.cfi_offset 4, -28
 286              		.cfi_offset 5, -24
 287              		.cfi_offset 6, -20
 288              		.cfi_offset 7, -16
 289              		.cfi_offset 8, -12
 290              		.cfi_offset 9, -8
 291              		.cfi_offset 14, -4
 298:Middlewares/Third_Party/FreeRTOS/Source/event_groups.c **** EventBits_t uxReturn, uxControlBits = 0;
 292              		.loc 1 298 1 is_stmt 1 view .LVU74
 293              	.LVL18:
 299:Middlewares/Third_Party/FreeRTOS/Source/event_groups.c **** BaseType_t xWaitConditionMet, xAlreadyYielded;
 294              		.loc 1 299 1 view .LVU75
 300:Middlewares/Third_Party/FreeRTOS/Source/event_groups.c **** BaseType_t xTimeoutOccurred = pdFALSE;
 295              		.loc 1 300 1 view .LVU76
 301:Middlewares/Third_Party/FreeRTOS/Source/event_groups.c **** 
 296              		.loc 1 301 1 view .LVU77
 305:Middlewares/Third_Party/FreeRTOS/Source/event_groups.c **** 	configASSERT( ( uxBitsToWaitFor & eventEVENT_BITS_CONTROL_BYTES ) == 0 );
 297              		.loc 1 305 2 view .LVU78
 298 0004 78B1     		cbz	r0, .L37
 299 0006 0C46     		mov	r4, r1
 300 0008 1646     		mov	r6, r2
 301 000a 1D46     		mov	r5, r3
 302 000c 0746     		mov	r7, r0
 305:Middlewares/Third_Party/FreeRTOS/Source/event_groups.c **** 	configASSERT( ( uxBitsToWaitFor & eventEVENT_BITS_CONTROL_BYTES ) == 0 );
 303              		.loc 1 305 29 discriminator 2 view .LVU79
 306:Middlewares/Third_Party/FreeRTOS/Source/event_groups.c **** 	configASSERT( uxBitsToWaitFor != 0 );
 304              		.loc 1 306 2 discriminator 2 view .LVU80
 305 000e 11F07F48 		ands	r8, r1, #-16777216
 306 0012 11D0     		beq	.L20
 306:Middlewares/Third_Party/FreeRTOS/Source/event_groups.c **** 	configASSERT( uxBitsToWaitFor != 0 );
 307              		.loc 1 306 2 view .LVU81
 308              	.LBB42:
 309              	.LBI42:
 191:Middlewares/Third_Party/FreeRTOS/Source/portable/GCC/ARM_CM4F/portmacro.h **** {
 310              		.loc 2 191 30 view .LVU82
 311              	.LBB43:
 193:Middlewares/Third_Party/FreeRTOS/Source/portable/GCC/ARM_CM4F/portmacro.h **** 
 312              		.loc 2 193 1 view .LVU83
ARM GAS  /var/folders/bp/hbn4m0qx5z54srgsq53w67zh0000gr/T//ccFnrHoI.s 			page 23


 313              		.loc 2 195 2 view .LVU84
 314              		.syntax unified
 315              	@ 195 "Middlewares/Third_Party/FreeRTOS/Source/portable/GCC/ARM_CM4F/portmacro.h" 1
 316 0014 4FF05003 			mov r3, #80												
 317 0018 83F31188 		msr basepri, r3											
 318 001c BFF36F8F 		isb														
 319 0020 BFF34F8F 		dsb														
 320              	
 321              	@ 0 "" 2
 322              	.LVL19:
 323              		.thumb
 324              		.syntax unified
 325              	.L21:
 326              		.loc 2 195 2 is_stmt 0 view .LVU85
 327              	.LBE43:
 328              	.LBE42:
 306:Middlewares/Third_Party/FreeRTOS/Source/event_groups.c **** 	configASSERT( uxBitsToWaitFor != 0 );
 329              		.loc 1 306 2 is_stmt 1 discriminator 2 view .LVU86
 306:Middlewares/Third_Party/FreeRTOS/Source/event_groups.c **** 	configASSERT( uxBitsToWaitFor != 0 );
 330              		.loc 1 306 2 discriminator 2 view .LVU87
 306:Middlewares/Third_Party/FreeRTOS/Source/event_groups.c **** 	configASSERT( uxBitsToWaitFor != 0 );
 331              		.loc 1 306 2 discriminator 2 view .LVU88
 332 0024 FEE7     		b	.L21
 333              	.LVL20:
 334              	.L37:
 305:Middlewares/Third_Party/FreeRTOS/Source/event_groups.c **** 	configASSERT( ( uxBitsToWaitFor & eventEVENT_BITS_CONTROL_BYTES ) == 0 );
 335              		.loc 1 305 2 view .LVU89
 336              	.LBB44:
 337              	.LBI44:
 191:Middlewares/Third_Party/FreeRTOS/Source/portable/GCC/ARM_CM4F/portmacro.h **** {
 338              		.loc 2 191 30 view .LVU90
 339              	.LBB45:
 193:Middlewares/Third_Party/FreeRTOS/Source/portable/GCC/ARM_CM4F/portmacro.h **** 
 340              		.loc 2 193 1 view .LVU91
 341              		.loc 2 195 2 view .LVU92
 342              		.syntax unified
 343              	@ 195 "Middlewares/Third_Party/FreeRTOS/Source/portable/GCC/ARM_CM4F/portmacro.h" 1
 344 0026 4FF05003 			mov r3, #80												
 345 002a 83F31188 		msr basepri, r3											
 346 002e BFF36F8F 		isb														
 347 0032 BFF34F8F 		dsb														
 348              	
 349              	@ 0 "" 2
 350              	.LVL21:
 351              		.thumb
 352              		.syntax unified
 353              	.L19:
 354              		.loc 2 195 2 is_stmt 0 view .LVU93
 355              	.LBE45:
 356              	.LBE44:
 305:Middlewares/Third_Party/FreeRTOS/Source/event_groups.c **** 	configASSERT( ( uxBitsToWaitFor & eventEVENT_BITS_CONTROL_BYTES ) == 0 );
 357              		.loc 1 305 2 is_stmt 1 discriminator 1 view .LVU94
 305:Middlewares/Third_Party/FreeRTOS/Source/event_groups.c **** 	configASSERT( ( uxBitsToWaitFor & eventEVENT_BITS_CONTROL_BYTES ) == 0 );
 358              		.loc 1 305 2 discriminator 1 view .LVU95
 305:Middlewares/Third_Party/FreeRTOS/Source/event_groups.c **** 	configASSERT( ( uxBitsToWaitFor & eventEVENT_BITS_CONTROL_BYTES ) == 0 );
 359              		.loc 1 305 2 discriminator 1 view .LVU96
 360 0036 FEE7     		b	.L19
ARM GAS  /var/folders/bp/hbn4m0qx5z54srgsq53w67zh0000gr/T//ccFnrHoI.s 			page 24


 361              	.LVL22:
 362              	.L20:
 306:Middlewares/Third_Party/FreeRTOS/Source/event_groups.c **** 	configASSERT( uxBitsToWaitFor != 0 );
 363              		.loc 1 306 74 discriminator 2 view .LVU97
 307:Middlewares/Third_Party/FreeRTOS/Source/event_groups.c **** 	#if ( ( INCLUDE_xTaskGetSchedulerState == 1 ) || ( configUSE_TIMERS == 1 ) )
 364              		.loc 1 307 2 discriminator 2 view .LVU98
 365 0038 41B9     		cbnz	r1, .L22
 307:Middlewares/Third_Party/FreeRTOS/Source/event_groups.c **** 	#if ( ( INCLUDE_xTaskGetSchedulerState == 1 ) || ( configUSE_TIMERS == 1 ) )
 366              		.loc 1 307 2 view .LVU99
 367              	.LBB46:
 368              	.LBI46:
 191:Middlewares/Third_Party/FreeRTOS/Source/portable/GCC/ARM_CM4F/portmacro.h **** {
 369              		.loc 2 191 30 view .LVU100
 370              	.LBB47:
 193:Middlewares/Third_Party/FreeRTOS/Source/portable/GCC/ARM_CM4F/portmacro.h **** 
 371              		.loc 2 193 1 view .LVU101
 372              		.loc 2 195 2 view .LVU102
 373              		.syntax unified
 374              	@ 195 "Middlewares/Third_Party/FreeRTOS/Source/portable/GCC/ARM_CM4F/portmacro.h" 1
 375 003a 4FF05003 			mov r3, #80												
 376 003e 83F31188 		msr basepri, r3											
 377 0042 BFF36F8F 		isb														
 378 0046 BFF34F8F 		dsb														
 379              	
 380              	@ 0 "" 2
 381              	.LVL23:
 382              		.thumb
 383              		.syntax unified
 384              	.L23:
 385              		.loc 2 195 2 is_stmt 0 view .LVU103
 386              	.LBE47:
 387              	.LBE46:
 307:Middlewares/Third_Party/FreeRTOS/Source/event_groups.c **** 	#if ( ( INCLUDE_xTaskGetSchedulerState == 1 ) || ( configUSE_TIMERS == 1 ) )
 388              		.loc 1 307 2 is_stmt 1 discriminator 3 view .LVU104
 307:Middlewares/Third_Party/FreeRTOS/Source/event_groups.c **** 	#if ( ( INCLUDE_xTaskGetSchedulerState == 1 ) || ( configUSE_TIMERS == 1 ) )
 389              		.loc 1 307 2 discriminator 3 view .LVU105
 307:Middlewares/Third_Party/FreeRTOS/Source/event_groups.c **** 	#if ( ( INCLUDE_xTaskGetSchedulerState == 1 ) || ( configUSE_TIMERS == 1 ) )
 390              		.loc 1 307 2 discriminator 3 view .LVU106
 391 004a FEE7     		b	.L23
 392              	.LVL24:
 393              	.L22:
 307:Middlewares/Third_Party/FreeRTOS/Source/event_groups.c **** 	#if ( ( INCLUDE_xTaskGetSchedulerState == 1 ) || ( configUSE_TIMERS == 1 ) )
 394              		.loc 1 307 38 discriminator 2 view .LVU107
 310:Middlewares/Third_Party/FreeRTOS/Source/event_groups.c **** 	}
 395              		.loc 1 310 3 discriminator 2 view .LVU108
 396 004c FFF7FEFF 		bl	xTaskGetSchedulerState
 397              	.LVL25:
 310:Middlewares/Third_Party/FreeRTOS/Source/event_groups.c **** 	}
 398              		.loc 1 310 3 is_stmt 0 discriminator 2 view .LVU109
 399 0050 50B9     		cbnz	r0, .L24
 400 0052 089B     		ldr	r3, [sp, #32]
 401 0054 43B1     		cbz	r3, .L24
 310:Middlewares/Third_Party/FreeRTOS/Source/event_groups.c **** 	}
 402              		.loc 1 310 3 is_stmt 1 view .LVU110
 403              	.LBB48:
 404              	.LBI48:
 191:Middlewares/Third_Party/FreeRTOS/Source/portable/GCC/ARM_CM4F/portmacro.h **** {
ARM GAS  /var/folders/bp/hbn4m0qx5z54srgsq53w67zh0000gr/T//ccFnrHoI.s 			page 25


 405              		.loc 2 191 30 view .LVU111
 406              	.LBB49:
 193:Middlewares/Third_Party/FreeRTOS/Source/portable/GCC/ARM_CM4F/portmacro.h **** 
 407              		.loc 2 193 1 view .LVU112
 408              		.loc 2 195 2 view .LVU113
 409              		.syntax unified
 410              	@ 195 "Middlewares/Third_Party/FreeRTOS/Source/portable/GCC/ARM_CM4F/portmacro.h" 1
 411 0056 4FF05003 			mov r3, #80												
 412 005a 83F31188 		msr basepri, r3											
 413 005e BFF36F8F 		isb														
 414 0062 BFF34F8F 		dsb														
 415              	
 416              	@ 0 "" 2
 417              	.LVL26:
 418              		.thumb
 419              		.syntax unified
 420              	.L25:
 421              		.loc 2 195 2 is_stmt 0 view .LVU114
 422              	.LBE49:
 423              	.LBE48:
 310:Middlewares/Third_Party/FreeRTOS/Source/event_groups.c **** 	}
 424              		.loc 1 310 3 is_stmt 1 discriminator 4 view .LVU115
 310:Middlewares/Third_Party/FreeRTOS/Source/event_groups.c **** 	}
 425              		.loc 1 310 3 discriminator 4 view .LVU116
 310:Middlewares/Third_Party/FreeRTOS/Source/event_groups.c **** 	}
 426              		.loc 1 310 3 discriminator 4 view .LVU117
 427 0066 FEE7     		b	.L25
 428              	.L24:
 310:Middlewares/Third_Party/FreeRTOS/Source/event_groups.c **** 	}
 429              		.loc 1 310 104 discriminator 8 view .LVU118
 314:Middlewares/Third_Party/FreeRTOS/Source/event_groups.c **** 	{
 430              		.loc 1 314 2 discriminator 8 view .LVU119
 431 0068 FFF7FEFF 		bl	vTaskSuspendAll
 432              	.LVL27:
 433              	.LBB50:
 316:Middlewares/Third_Party/FreeRTOS/Source/event_groups.c **** 
 434              		.loc 1 316 3 discriminator 8 view .LVU120
 316:Middlewares/Third_Party/FreeRTOS/Source/event_groups.c **** 
 435              		.loc 1 316 21 is_stmt 0 discriminator 8 view .LVU121
 436 006c D7F80090 		ldr	r9, [r7]
 437              	.LVL28:
 319:Middlewares/Third_Party/FreeRTOS/Source/event_groups.c **** 
 438              		.loc 1 319 3 is_stmt 1 discriminator 8 view .LVU122
 319:Middlewares/Third_Party/FreeRTOS/Source/event_groups.c **** 
 439              		.loc 1 319 23 is_stmt 0 discriminator 8 view .LVU123
 440 0070 2A46     		mov	r2, r5
 441 0072 2146     		mov	r1, r4
 442 0074 4846     		mov	r0, r9
 443 0076 FFF7FEFF 		bl	prvTestWaitCondition
 444              	.LVL29:
 321:Middlewares/Third_Party/FreeRTOS/Source/event_groups.c **** 		{
 445              		.loc 1 321 3 is_stmt 1 discriminator 8 view .LVU124
 321:Middlewares/Third_Party/FreeRTOS/Source/event_groups.c **** 		{
 446              		.loc 1 321 5 is_stmt 0 discriminator 8 view .LVU125
 447 007a F0B1     		cbz	r0, .L26
 325:Middlewares/Third_Party/FreeRTOS/Source/event_groups.c **** 			xTicksToWait = ( TickType_t ) 0;
 448              		.loc 1 325 4 is_stmt 1 view .LVU126
ARM GAS  /var/folders/bp/hbn4m0qx5z54srgsq53w67zh0000gr/T//ccFnrHoI.s 			page 26


 449              	.LVL30:
 326:Middlewares/Third_Party/FreeRTOS/Source/event_groups.c **** 
 450              		.loc 1 326 4 view .LVU127
 329:Middlewares/Third_Party/FreeRTOS/Source/event_groups.c **** 			{
 451              		.loc 1 329 4 view .LVU128
 329:Middlewares/Third_Party/FreeRTOS/Source/event_groups.c **** 			{
 452              		.loc 1 329 6 is_stmt 0 view .LVU129
 453 007c 16B1     		cbz	r6, .L27
 331:Middlewares/Third_Party/FreeRTOS/Source/event_groups.c **** 			}
 454              		.loc 1 331 5 is_stmt 1 view .LVU130
 331:Middlewares/Third_Party/FreeRTOS/Source/event_groups.c **** 			}
 455              		.loc 1 331 30 is_stmt 0 view .LVU131
 456 007e 29EA0403 		bic	r3, r9, r4
 457 0082 3B60     		str	r3, [r7]
 458              	.LVL31:
 459              	.L27:
 379:Middlewares/Third_Party/FreeRTOS/Source/event_groups.c **** 		}
 460              		.loc 1 379 68 is_stmt 1 view .LVU132
 461              	.LBE50:
 382:Middlewares/Third_Party/FreeRTOS/Source/event_groups.c **** 
 462              		.loc 1 382 2 view .LVU133
 382:Middlewares/Third_Party/FreeRTOS/Source/event_groups.c **** 
 463              		.loc 1 382 20 is_stmt 0 view .LVU134
 464 0084 FFF7FEFF 		bl	xTaskResumeAll
 465              	.LVL32:
 384:Middlewares/Third_Party/FreeRTOS/Source/event_groups.c **** 	{
 466              		.loc 1 384 2 is_stmt 1 view .LVU135
 384:Middlewares/Third_Party/FreeRTOS/Source/event_groups.c **** 	{
 467              		.loc 1 384 4 is_stmt 0 view .LVU136
 468 0088 B8F1000F 		cmp	r8, #0
 469 008c 12D0     		beq	.L17
 386:Middlewares/Third_Party/FreeRTOS/Source/event_groups.c **** 		{
 470              		.loc 1 386 3 is_stmt 1 view .LVU137
 386:Middlewares/Third_Party/FreeRTOS/Source/event_groups.c **** 		{
 471              		.loc 1 386 5 is_stmt 0 view .LVU138
 472 008e 48B9     		cbnz	r0, .L31
 388:Middlewares/Third_Party/FreeRTOS/Source/event_groups.c **** 		}
 473              		.loc 1 388 4 is_stmt 1 view .LVU139
 474 0090 4FF0E023 		mov	r3, #-536813568
 475 0094 4FF08052 		mov	r2, #268435456
 476 0098 C3F8042D 		str	r2, [r3, #3332]
 388:Middlewares/Third_Party/FreeRTOS/Source/event_groups.c **** 		}
 477              		.loc 1 388 4 view .LVU140
 478              		.syntax unified
 479              	@ 388 "Middlewares/Third_Party/FreeRTOS/Source/event_groups.c" 1
 480 009c BFF34F8F 		dsb
 481              	@ 0 "" 2
 388:Middlewares/Third_Party/FreeRTOS/Source/event_groups.c **** 		}
 482              		.loc 1 388 4 view .LVU141
 483              	@ 388 "Middlewares/Third_Party/FreeRTOS/Source/event_groups.c" 1
 484 00a0 BFF36F8F 		isb
 485              	@ 0 "" 2
 388:Middlewares/Third_Party/FreeRTOS/Source/event_groups.c **** 		}
 486              		.loc 1 388 26 view .LVU142
 487              		.thumb
 488              		.syntax unified
 489              	.L31:
ARM GAS  /var/folders/bp/hbn4m0qx5z54srgsq53w67zh0000gr/T//ccFnrHoI.s 			page 27


 392:Middlewares/Third_Party/FreeRTOS/Source/event_groups.c **** 		}
 490              		.loc 1 392 28 view .LVU143
 399:Middlewares/Third_Party/FreeRTOS/Source/event_groups.c **** 
 491              		.loc 1 399 3 view .LVU144
 399:Middlewares/Third_Party/FreeRTOS/Source/event_groups.c **** 
 492              		.loc 1 399 14 is_stmt 0 view .LVU145
 493 00a4 FFF7FEFF 		bl	uxTaskResetEventItemValue
 494              	.LVL33:
 399:Middlewares/Third_Party/FreeRTOS/Source/event_groups.c **** 
 495              		.loc 1 399 14 view .LVU146
 496 00a8 8146     		mov	r9, r0
 497              	.LVL34:
 401:Middlewares/Third_Party/FreeRTOS/Source/event_groups.c **** 		{
 498              		.loc 1 401 3 is_stmt 1 view .LVU147
 401:Middlewares/Third_Party/FreeRTOS/Source/event_groups.c **** 		{
 499              		.loc 1 401 5 is_stmt 0 view .LVU148
 500 00aa 10F0007F 		tst	r0, #33554432
 501 00ae 1AD0     		beq	.L38
 502              	.LVL35:
 503              	.L32:
 432:Middlewares/Third_Party/FreeRTOS/Source/event_groups.c **** 
 504              		.loc 1 432 3 is_stmt 1 view .LVU149
 435:Middlewares/Third_Party/FreeRTOS/Source/event_groups.c **** 	}
 505              		.loc 1 435 3 view .LVU150
 435:Middlewares/Third_Party/FreeRTOS/Source/event_groups.c **** 	}
 506              		.loc 1 435 12 is_stmt 0 view .LVU151
 507 00b0 29F07F49 		bic	r9, r9, #-16777216
 508              	.LVL36:
 437:Middlewares/Third_Party/FreeRTOS/Source/event_groups.c **** 
 509              		.loc 1 437 2 is_stmt 1 view .LVU152
 440:Middlewares/Third_Party/FreeRTOS/Source/event_groups.c **** 
 510              		.loc 1 440 2 view .LVU153
 442:Middlewares/Third_Party/FreeRTOS/Source/event_groups.c **** }
 511              		.loc 1 442 2 view .LVU154
 512              	.L17:
 443:Middlewares/Third_Party/FreeRTOS/Source/event_groups.c **** /*-----------------------------------------------------------*/
 513              		.loc 1 443 1 is_stmt 0 view .LVU155
 514 00b4 4846     		mov	r0, r9
 515 00b6 BDE8F883 		pop	{r3, r4, r5, r6, r7, r8, r9, pc}
 516              	.LVL37:
 517              	.L26:
 518              	.LBB51:
 338:Middlewares/Third_Party/FreeRTOS/Source/event_groups.c **** 		{
 519              		.loc 1 338 8 is_stmt 1 view .LVU156
 338:Middlewares/Third_Party/FreeRTOS/Source/event_groups.c **** 		{
 520              		.loc 1 338 10 is_stmt 0 view .LVU157
 521 00ba 089B     		ldr	r3, [sp, #32]
 522 00bc 83B1     		cbz	r3, .L34
 351:Middlewares/Third_Party/FreeRTOS/Source/event_groups.c **** 			{
 523              		.loc 1 351 4 is_stmt 1 view .LVU158
 351:Middlewares/Third_Party/FreeRTOS/Source/event_groups.c **** 			{
 524              		.loc 1 351 6 is_stmt 0 view .LVU159
 525 00be 66B9     		cbnz	r6, .L35
 526              	.LBE51:
 299:Middlewares/Third_Party/FreeRTOS/Source/event_groups.c **** BaseType_t xWaitConditionMet, xAlreadyYielded;
 527              		.loc 1 299 23 view .LVU160
 528 00c0 4146     		mov	r1, r8
ARM GAS  /var/folders/bp/hbn4m0qx5z54srgsq53w67zh0000gr/T//ccFnrHoI.s 			page 28


 529              	.L28:
 530              	.LVL38:
 531              	.LBB52:
 357:Middlewares/Third_Party/FreeRTOS/Source/event_groups.c **** 			}
 532              		.loc 1 357 29 is_stmt 1 view .LVU161
 360:Middlewares/Third_Party/FreeRTOS/Source/event_groups.c **** 			{
 533              		.loc 1 360 4 view .LVU162
 360:Middlewares/Third_Party/FreeRTOS/Source/event_groups.c **** 			{
 534              		.loc 1 360 6 is_stmt 0 view .LVU163
 535 00c2 0DB1     		cbz	r5, .L29
 362:Middlewares/Third_Party/FreeRTOS/Source/event_groups.c **** 			}
 536              		.loc 1 362 5 is_stmt 1 view .LVU164
 362:Middlewares/Third_Party/FreeRTOS/Source/event_groups.c **** 			}
 537              		.loc 1 362 19 is_stmt 0 view .LVU165
 538 00c4 41F08061 		orr	r1, r1, #67108864
 539              	.LVL39:
 540              	.L29:
 366:Middlewares/Third_Party/FreeRTOS/Source/event_groups.c **** 			}
 541              		.loc 1 366 29 is_stmt 1 view .LVU166
 372:Middlewares/Third_Party/FreeRTOS/Source/event_groups.c **** 
 542              		.loc 1 372 4 view .LVU167
 543 00c8 089A     		ldr	r2, [sp, #32]
 544 00ca 2143     		orrs	r1, r1, r4
 545              	.LVL40:
 372:Middlewares/Third_Party/FreeRTOS/Source/event_groups.c **** 
 546              		.loc 1 372 4 is_stmt 0 view .LVU168
 547 00cc 381D     		adds	r0, r7, #4
 548              	.LVL41:
 372:Middlewares/Third_Party/FreeRTOS/Source/event_groups.c **** 
 549              		.loc 1 372 4 view .LVU169
 550 00ce FFF7FEFF 		bl	vTaskPlaceOnUnorderedEventList
 551              	.LVL42:
 377:Middlewares/Third_Party/FreeRTOS/Source/event_groups.c **** 
 552              		.loc 1 377 4 is_stmt 1 view .LVU170
 377:Middlewares/Third_Party/FreeRTOS/Source/event_groups.c **** 
 553              		.loc 1 377 13 is_stmt 0 view .LVU171
 554 00d2 C146     		mov	r9, r8
 555              	.LVL43:
 372:Middlewares/Third_Party/FreeRTOS/Source/event_groups.c **** 
 556              		.loc 1 372 4 view .LVU172
 557 00d4 DDF82080 		ldr	r8, [sp, #32]
 558 00d8 D4E7     		b	.L27
 559              	.LVL44:
 560              	.L35:
 353:Middlewares/Third_Party/FreeRTOS/Source/event_groups.c **** 			}
 561              		.loc 1 353 19 view .LVU173
 562 00da 4FF08071 		mov	r1, #16777216
 563 00de F0E7     		b	.L28
 564              	.L34:
 565 00e0 DDF82080 		ldr	r8, [sp, #32]
 566 00e4 CEE7     		b	.L27
 567              	.LVL45:
 568              	.L38:
 353:Middlewares/Third_Party/FreeRTOS/Source/event_groups.c **** 			}
 569              		.loc 1 353 19 view .LVU174
 570              	.LBE52:
 403:Middlewares/Third_Party/FreeRTOS/Source/event_groups.c **** 			{
ARM GAS  /var/folders/bp/hbn4m0qx5z54srgsq53w67zh0000gr/T//ccFnrHoI.s 			page 29


 571              		.loc 1 403 4 is_stmt 1 view .LVU175
 572 00e6 FFF7FEFF 		bl	vPortEnterCritical
 573              	.LVL46:
 406:Middlewares/Third_Party/FreeRTOS/Source/event_groups.c **** 
 574              		.loc 1 406 5 view .LVU176
 406:Middlewares/Third_Party/FreeRTOS/Source/event_groups.c **** 
 575              		.loc 1 406 14 is_stmt 0 view .LVU177
 576 00ea D7F80090 		ldr	r9, [r7]
 577              	.LVL47:
 410:Middlewares/Third_Party/FreeRTOS/Source/event_groups.c **** 				{
 578              		.loc 1 410 5 is_stmt 1 view .LVU178
 410:Middlewares/Third_Party/FreeRTOS/Source/event_groups.c **** 				{
 579              		.loc 1 410 9 is_stmt 0 view .LVU179
 580 00ee 2A46     		mov	r2, r5
 581 00f0 2146     		mov	r1, r4
 582 00f2 4846     		mov	r0, r9
 583 00f4 FFF7FEFF 		bl	prvTestWaitCondition
 584              	.LVL48:
 410:Middlewares/Third_Party/FreeRTOS/Source/event_groups.c **** 				{
 585              		.loc 1 410 7 view .LVU180
 586 00f8 18B1     		cbz	r0, .L33
 412:Middlewares/Third_Party/FreeRTOS/Source/event_groups.c **** 					{
 587              		.loc 1 412 6 is_stmt 1 view .LVU181
 412:Middlewares/Third_Party/FreeRTOS/Source/event_groups.c **** 					{
 588              		.loc 1 412 8 is_stmt 0 view .LVU182
 589 00fa 16B1     		cbz	r6, .L33
 414:Middlewares/Third_Party/FreeRTOS/Source/event_groups.c **** 					}
 590              		.loc 1 414 7 is_stmt 1 view .LVU183
 414:Middlewares/Third_Party/FreeRTOS/Source/event_groups.c **** 					}
 591              		.loc 1 414 32 is_stmt 0 view .LVU184
 592 00fc 29EA0404 		bic	r4, r9, r4
 593              	.LVL49:
 414:Middlewares/Third_Party/FreeRTOS/Source/event_groups.c **** 					}
 594              		.loc 1 414 32 view .LVU185
 595 0100 3C60     		str	r4, [r7]
 596              	.L33:
 423:Middlewares/Third_Party/FreeRTOS/Source/event_groups.c **** 				}
 597              		.loc 1 423 30 is_stmt 1 view .LVU186
 425:Middlewares/Third_Party/FreeRTOS/Source/event_groups.c **** 			}
 598              		.loc 1 425 5 view .LVU187
 599              	.LVL50:
 427:Middlewares/Third_Party/FreeRTOS/Source/event_groups.c **** 		}
 600              		.loc 1 427 4 view .LVU188
 601 0102 FFF7FEFF 		bl	vPortExitCritical
 602              	.LVL51:
 603 0106 D3E7     		b	.L32
 604              		.cfi_endproc
 605              	.LFE7:
 607              		.section	.text.xEventGroupClearBits,"ax",%progbits
 608              		.align	1
 609              		.global	xEventGroupClearBits
 610              		.syntax unified
 611              		.thumb
 612              		.thumb_func
 613              		.fpu fpv4-sp-d16
 615              	xEventGroupClearBits:
 616              	.LVL52:
ARM GAS  /var/folders/bp/hbn4m0qx5z54srgsq53w67zh0000gr/T//ccFnrHoI.s 			page 30


 617              	.LFB8:
 447:Middlewares/Third_Party/FreeRTOS/Source/event_groups.c **** EventGroup_t *pxEventBits = ( EventGroup_t * ) xEventGroup;
 618              		.loc 1 447 1 view -0
 619              		.cfi_startproc
 620              		@ args = 0, pretend = 0, frame = 0
 621              		@ frame_needed = 0, uses_anonymous_args = 0
 448:Middlewares/Third_Party/FreeRTOS/Source/event_groups.c **** EventBits_t uxReturn;
 622              		.loc 1 448 1 view .LVU190
 449:Middlewares/Third_Party/FreeRTOS/Source/event_groups.c **** 
 623              		.loc 1 449 1 view .LVU191
 453:Middlewares/Third_Party/FreeRTOS/Source/event_groups.c **** 	configASSERT( ( uxBitsToClear & eventEVENT_BITS_CONTROL_BYTES ) == 0 );
 624              		.loc 1 453 2 view .LVU192
 625 0000 70B1     		cbz	r0, .L46
 447:Middlewares/Third_Party/FreeRTOS/Source/event_groups.c **** EventGroup_t *pxEventBits = ( EventGroup_t * ) xEventGroup;
 626              		.loc 1 447 1 is_stmt 0 discriminator 2 view .LVU193
 627 0002 70B5     		push	{r4, r5, r6, lr}
 628              	.LCFI7:
 629              		.cfi_def_cfa_offset 16
 630              		.cfi_offset 4, -16
 631              		.cfi_offset 5, -12
 632              		.cfi_offset 6, -8
 633              		.cfi_offset 14, -4
 634 0004 0C46     		mov	r4, r1
 635 0006 0546     		mov	r5, r0
 453:Middlewares/Third_Party/FreeRTOS/Source/event_groups.c **** 	configASSERT( ( uxBitsToClear & eventEVENT_BITS_CONTROL_BYTES ) == 0 );
 636              		.loc 1 453 29 is_stmt 1 discriminator 2 view .LVU194
 454:Middlewares/Third_Party/FreeRTOS/Source/event_groups.c **** 
 637              		.loc 1 454 2 discriminator 2 view .LVU195
 638 0008 11F07F4F 		tst	r1, #-16777216
 639 000c 11D0     		beq	.L42
 454:Middlewares/Third_Party/FreeRTOS/Source/event_groups.c **** 
 640              		.loc 1 454 2 view .LVU196
 641              	.LBB53:
 642              	.LBI53:
 191:Middlewares/Third_Party/FreeRTOS/Source/portable/GCC/ARM_CM4F/portmacro.h **** {
 643              		.loc 2 191 30 view .LVU197
 644              	.LBB54:
 193:Middlewares/Third_Party/FreeRTOS/Source/portable/GCC/ARM_CM4F/portmacro.h **** 
 645              		.loc 2 193 1 view .LVU198
 646              		.loc 2 195 2 view .LVU199
 647              		.syntax unified
 648              	@ 195 "Middlewares/Third_Party/FreeRTOS/Source/portable/GCC/ARM_CM4F/portmacro.h" 1
 649 000e 4FF05003 			mov r3, #80												
 650 0012 83F31188 		msr basepri, r3											
 651 0016 BFF36F8F 		isb														
 652 001a BFF34F8F 		dsb														
 653              	
 654              	@ 0 "" 2
 655              	.LVL53:
 656              		.thumb
 657              		.syntax unified
 658              	.L43:
 659              		.loc 2 195 2 is_stmt 0 view .LVU200
 660              	.LBE54:
 661              	.LBE53:
 454:Middlewares/Third_Party/FreeRTOS/Source/event_groups.c **** 
 662              		.loc 1 454 2 is_stmt 1 discriminator 2 view .LVU201
ARM GAS  /var/folders/bp/hbn4m0qx5z54srgsq53w67zh0000gr/T//ccFnrHoI.s 			page 31


 454:Middlewares/Third_Party/FreeRTOS/Source/event_groups.c **** 
 663              		.loc 1 454 2 discriminator 2 view .LVU202
 454:Middlewares/Third_Party/FreeRTOS/Source/event_groups.c **** 
 664              		.loc 1 454 2 discriminator 2 view .LVU203
 665 001e FEE7     		b	.L43
 666              	.L46:
 667              	.LCFI8:
 668              		.cfi_def_cfa_offset 0
 669              		.cfi_restore 4
 670              		.cfi_restore 5
 671              		.cfi_restore 6
 672              		.cfi_restore 14
 453:Middlewares/Third_Party/FreeRTOS/Source/event_groups.c **** 	configASSERT( ( uxBitsToClear & eventEVENT_BITS_CONTROL_BYTES ) == 0 );
 673              		.loc 1 453 2 view .LVU204
 674              	.LBB55:
 675              	.LBI55:
 191:Middlewares/Third_Party/FreeRTOS/Source/portable/GCC/ARM_CM4F/portmacro.h **** {
 676              		.loc 2 191 30 view .LVU205
 677              	.LBB56:
 193:Middlewares/Third_Party/FreeRTOS/Source/portable/GCC/ARM_CM4F/portmacro.h **** 
 678              		.loc 2 193 1 view .LVU206
 679              		.loc 2 195 2 view .LVU207
 680              		.syntax unified
 681              	@ 195 "Middlewares/Third_Party/FreeRTOS/Source/portable/GCC/ARM_CM4F/portmacro.h" 1
 682 0020 4FF05003 			mov r3, #80												
 683 0024 83F31188 		msr basepri, r3											
 684 0028 BFF36F8F 		isb														
 685 002c BFF34F8F 		dsb														
 686              	
 687              	@ 0 "" 2
 688              	.LVL54:
 689              		.thumb
 690              		.syntax unified
 691              	.L41:
 692              		.loc 2 195 2 is_stmt 0 view .LVU208
 693              	.LBE56:
 694              	.LBE55:
 453:Middlewares/Third_Party/FreeRTOS/Source/event_groups.c **** 	configASSERT( ( uxBitsToClear & eventEVENT_BITS_CONTROL_BYTES ) == 0 );
 695              		.loc 1 453 2 is_stmt 1 discriminator 1 view .LVU209
 453:Middlewares/Third_Party/FreeRTOS/Source/event_groups.c **** 	configASSERT( ( uxBitsToClear & eventEVENT_BITS_CONTROL_BYTES ) == 0 );
 696              		.loc 1 453 2 discriminator 1 view .LVU210
 453:Middlewares/Third_Party/FreeRTOS/Source/event_groups.c **** 	configASSERT( ( uxBitsToClear & eventEVENT_BITS_CONTROL_BYTES ) == 0 );
 697              		.loc 1 453 2 discriminator 1 view .LVU211
 698 0030 FEE7     		b	.L41
 699              	.L42:
 700              	.LCFI9:
 701              		.cfi_def_cfa_offset 16
 702              		.cfi_offset 4, -16
 703              		.cfi_offset 5, -12
 704              		.cfi_offset 6, -8
 705              		.cfi_offset 14, -4
 454:Middlewares/Third_Party/FreeRTOS/Source/event_groups.c **** 
 706              		.loc 1 454 72 discriminator 2 view .LVU212
 456:Middlewares/Third_Party/FreeRTOS/Source/event_groups.c **** 	{
 707              		.loc 1 456 2 discriminator 2 view .LVU213
 708 0032 FFF7FEFF 		bl	vPortEnterCritical
 709              	.LVL55:
ARM GAS  /var/folders/bp/hbn4m0qx5z54srgsq53w67zh0000gr/T//ccFnrHoI.s 			page 32


 458:Middlewares/Third_Party/FreeRTOS/Source/event_groups.c **** 
 710              		.loc 1 458 60 discriminator 2 view .LVU214
 462:Middlewares/Third_Party/FreeRTOS/Source/event_groups.c **** 
 711              		.loc 1 462 3 discriminator 2 view .LVU215
 462:Middlewares/Third_Party/FreeRTOS/Source/event_groups.c **** 
 712              		.loc 1 462 12 is_stmt 0 discriminator 2 view .LVU216
 713 0036 2E68     		ldr	r6, [r5]
 714              	.LVL56:
 465:Middlewares/Third_Party/FreeRTOS/Source/event_groups.c **** 	}
 715              		.loc 1 465 3 is_stmt 1 discriminator 2 view .LVU217
 465:Middlewares/Third_Party/FreeRTOS/Source/event_groups.c **** 	}
 716              		.loc 1 465 28 is_stmt 0 discriminator 2 view .LVU218
 717 0038 26EA0404 		bic	r4, r6, r4
 718              	.LVL57:
 465:Middlewares/Third_Party/FreeRTOS/Source/event_groups.c **** 	}
 719              		.loc 1 465 28 discriminator 2 view .LVU219
 720 003c 2C60     		str	r4, [r5]
 467:Middlewares/Third_Party/FreeRTOS/Source/event_groups.c **** 
 721              		.loc 1 467 2 is_stmt 1 discriminator 2 view .LVU220
 722 003e FFF7FEFF 		bl	vPortExitCritical
 723              	.LVL58:
 469:Middlewares/Third_Party/FreeRTOS/Source/event_groups.c **** }
 724              		.loc 1 469 2 discriminator 2 view .LVU221
 470:Middlewares/Third_Party/FreeRTOS/Source/event_groups.c **** /*-----------------------------------------------------------*/
 725              		.loc 1 470 1 is_stmt 0 discriminator 2 view .LVU222
 726 0042 3046     		mov	r0, r6
 727 0044 70BD     		pop	{r4, r5, r6, pc}
 470:Middlewares/Third_Party/FreeRTOS/Source/event_groups.c **** /*-----------------------------------------------------------*/
 728              		.loc 1 470 1 discriminator 2 view .LVU223
 729              		.cfi_endproc
 730              	.LFE8:
 732              		.section	.text.vEventGroupClearBitsCallback,"ax",%progbits
 733              		.align	1
 734              		.global	vEventGroupClearBitsCallback
 735              		.syntax unified
 736              		.thumb
 737              		.thumb_func
 738              		.fpu fpv4-sp-d16
 740              	vEventGroupClearBitsCallback:
 741              	.LVL59:
 742              	.LFB14:
 651:Middlewares/Third_Party/FreeRTOS/Source/event_groups.c **** 	( void ) xEventGroupClearBits( pvEventGroup, ( EventBits_t ) ulBitsToClear );
 743              		.loc 1 651 1 is_stmt 1 view -0
 744              		.cfi_startproc
 745              		@ args = 0, pretend = 0, frame = 0
 746              		@ frame_needed = 0, uses_anonymous_args = 0
 651:Middlewares/Third_Party/FreeRTOS/Source/event_groups.c **** 	( void ) xEventGroupClearBits( pvEventGroup, ( EventBits_t ) ulBitsToClear );
 747              		.loc 1 651 1 is_stmt 0 view .LVU225
 748 0000 08B5     		push	{r3, lr}
 749              	.LCFI10:
 750              		.cfi_def_cfa_offset 8
 751              		.cfi_offset 3, -8
 752              		.cfi_offset 14, -4
 652:Middlewares/Third_Party/FreeRTOS/Source/event_groups.c **** }
 753              		.loc 1 652 2 is_stmt 1 view .LVU226
 652:Middlewares/Third_Party/FreeRTOS/Source/event_groups.c **** }
 754              		.loc 1 652 11 is_stmt 0 view .LVU227
ARM GAS  /var/folders/bp/hbn4m0qx5z54srgsq53w67zh0000gr/T//ccFnrHoI.s 			page 33


 755 0002 FFF7FEFF 		bl	xEventGroupClearBits
 756              	.LVL60:
 653:Middlewares/Third_Party/FreeRTOS/Source/event_groups.c **** /*-----------------------------------------------------------*/
 757              		.loc 1 653 1 view .LVU228
 758 0006 08BD     		pop	{r3, pc}
 759              		.cfi_endproc
 760              	.LFE14:
 762              		.section	.text.xEventGroupClearBitsFromISR,"ax",%progbits
 763              		.align	1
 764              		.global	xEventGroupClearBitsFromISR
 765              		.syntax unified
 766              		.thumb
 767              		.thumb_func
 768              		.fpu fpv4-sp-d16
 770              	xEventGroupClearBitsFromISR:
 771              	.LVL61:
 772              	.LFB9:
 476:Middlewares/Third_Party/FreeRTOS/Source/event_groups.c **** 		BaseType_t xReturn;
 773              		.loc 1 476 2 is_stmt 1 view -0
 774              		.cfi_startproc
 775              		@ args = 0, pretend = 0, frame = 0
 776              		@ frame_needed = 0, uses_anonymous_args = 0
 476:Middlewares/Third_Party/FreeRTOS/Source/event_groups.c **** 		BaseType_t xReturn;
 777              		.loc 1 476 2 is_stmt 0 view .LVU230
 778 0000 08B5     		push	{r3, lr}
 779              	.LCFI11:
 780              		.cfi_def_cfa_offset 8
 781              		.cfi_offset 3, -8
 782              		.cfi_offset 14, -4
 783 0002 0A46     		mov	r2, r1
 477:Middlewares/Third_Party/FreeRTOS/Source/event_groups.c **** 
 784              		.loc 1 477 3 is_stmt 1 view .LVU231
 479:Middlewares/Third_Party/FreeRTOS/Source/event_groups.c **** 		xReturn = xTimerPendFunctionCallFromISR( vEventGroupClearBitsCallback, ( void * ) xEventGroup, ( 
 785              		.loc 1 479 69 view .LVU232
 480:Middlewares/Third_Party/FreeRTOS/Source/event_groups.c **** 
 786              		.loc 1 480 3 view .LVU233
 480:Middlewares/Third_Party/FreeRTOS/Source/event_groups.c **** 
 787              		.loc 1 480 13 is_stmt 0 view .LVU234
 788 0004 0023     		movs	r3, #0
 789 0006 0146     		mov	r1, r0
 790              	.LVL62:
 480:Middlewares/Third_Party/FreeRTOS/Source/event_groups.c **** 
 791              		.loc 1 480 13 view .LVU235
 792 0008 0148     		ldr	r0, .L51
 793              	.LVL63:
 480:Middlewares/Third_Party/FreeRTOS/Source/event_groups.c **** 
 794              		.loc 1 480 13 view .LVU236
 795 000a FFF7FEFF 		bl	xTimerPendFunctionCallFromISR
 796              	.LVL64:
 482:Middlewares/Third_Party/FreeRTOS/Source/event_groups.c **** 	}
 797              		.loc 1 482 3 is_stmt 1 view .LVU237
 483:Middlewares/Third_Party/FreeRTOS/Source/event_groups.c **** 
 798              		.loc 1 483 2 is_stmt 0 view .LVU238
 799 000e 08BD     		pop	{r3, pc}
 800              	.L52:
 801              		.align	2
 802              	.L51:
ARM GAS  /var/folders/bp/hbn4m0qx5z54srgsq53w67zh0000gr/T//ccFnrHoI.s 			page 34


 803 0010 00000000 		.word	vEventGroupClearBitsCallback
 804              		.cfi_endproc
 805              	.LFE9:
 807              		.section	.text.xEventGroupGetBitsFromISR,"ax",%progbits
 808              		.align	1
 809              		.global	xEventGroupGetBitsFromISR
 810              		.syntax unified
 811              		.thumb
 812              		.thumb_func
 813              		.fpu fpv4-sp-d16
 815              	xEventGroupGetBitsFromISR:
 816              	.LVL65:
 817              	.LFB10:
 489:Middlewares/Third_Party/FreeRTOS/Source/event_groups.c **** UBaseType_t uxSavedInterruptStatus;
 818              		.loc 1 489 1 is_stmt 1 view -0
 819              		.cfi_startproc
 820              		@ args = 0, pretend = 0, frame = 0
 821              		@ frame_needed = 0, uses_anonymous_args = 0
 822              		@ link register save eliminated.
 490:Middlewares/Third_Party/FreeRTOS/Source/event_groups.c **** EventGroup_t *pxEventBits = ( EventGroup_t * ) xEventGroup;
 823              		.loc 1 490 1 view .LVU240
 491:Middlewares/Third_Party/FreeRTOS/Source/event_groups.c **** EventBits_t uxReturn;
 824              		.loc 1 491 1 view .LVU241
 492:Middlewares/Third_Party/FreeRTOS/Source/event_groups.c **** 
 825              		.loc 1 492 1 view .LVU242
 494:Middlewares/Third_Party/FreeRTOS/Source/event_groups.c **** 	{
 826              		.loc 1 494 2 view .LVU243
 827              	.LBB57:
 828              	.LBI57:
 196:Middlewares/Third_Party/FreeRTOS/Source/portable/GCC/ARM_CM4F/portmacro.h **** 	(
 197:Middlewares/Third_Party/FreeRTOS/Source/portable/GCC/ARM_CM4F/portmacro.h **** 		"	mov %0, %1												\n"	\
 198:Middlewares/Third_Party/FreeRTOS/Source/portable/GCC/ARM_CM4F/portmacro.h **** 		"	msr basepri, %0											\n" \
 199:Middlewares/Third_Party/FreeRTOS/Source/portable/GCC/ARM_CM4F/portmacro.h **** 		"	isb														\n" \
 200:Middlewares/Third_Party/FreeRTOS/Source/portable/GCC/ARM_CM4F/portmacro.h **** 		"	dsb														\n" \
 201:Middlewares/Third_Party/FreeRTOS/Source/portable/GCC/ARM_CM4F/portmacro.h **** 		:"=r" (ulNewBASEPRI) : "i" ( configMAX_SYSCALL_INTERRUPT_PRIORITY ) : "memory"
 202:Middlewares/Third_Party/FreeRTOS/Source/portable/GCC/ARM_CM4F/portmacro.h **** 	);
 203:Middlewares/Third_Party/FreeRTOS/Source/portable/GCC/ARM_CM4F/portmacro.h **** }
 204:Middlewares/Third_Party/FreeRTOS/Source/portable/GCC/ARM_CM4F/portmacro.h **** 
 205:Middlewares/Third_Party/FreeRTOS/Source/portable/GCC/ARM_CM4F/portmacro.h **** /*-----------------------------------------------------------*/
 206:Middlewares/Third_Party/FreeRTOS/Source/portable/GCC/ARM_CM4F/portmacro.h **** 
 207:Middlewares/Third_Party/FreeRTOS/Source/portable/GCC/ARM_CM4F/portmacro.h **** portFORCE_INLINE static uint32_t ulPortRaiseBASEPRI( void )
 829              		.loc 2 207 34 view .LVU244
 830              	.LBB58:
 208:Middlewares/Third_Party/FreeRTOS/Source/portable/GCC/ARM_CM4F/portmacro.h **** {
 209:Middlewares/Third_Party/FreeRTOS/Source/portable/GCC/ARM_CM4F/portmacro.h **** uint32_t ulOriginalBASEPRI, ulNewBASEPRI;
 831              		.loc 2 209 1 view .LVU245
 210:Middlewares/Third_Party/FreeRTOS/Source/portable/GCC/ARM_CM4F/portmacro.h **** 
 211:Middlewares/Third_Party/FreeRTOS/Source/portable/GCC/ARM_CM4F/portmacro.h **** 	__asm volatile
 832              		.loc 2 211 2 view .LVU246
 833              		.syntax unified
 834              	@ 211 "Middlewares/Third_Party/FreeRTOS/Source/portable/GCC/ARM_CM4F/portmacro.h" 1
 835 0000 EFF31183 			mrs r3, basepri											
 836 0004 4FF05002 		mov r2, #80												
 837 0008 82F31188 		msr basepri, r2											
 838 000c BFF36F8F 		isb														
 839 0010 BFF34F8F 		dsb														
 840              	
ARM GAS  /var/folders/bp/hbn4m0qx5z54srgsq53w67zh0000gr/T//ccFnrHoI.s 			page 35


 841              	@ 0 "" 2
 842              	.LVL66:
 212:Middlewares/Third_Party/FreeRTOS/Source/portable/GCC/ARM_CM4F/portmacro.h **** 	(
 213:Middlewares/Third_Party/FreeRTOS/Source/portable/GCC/ARM_CM4F/portmacro.h **** 		"	mrs %0, basepri											\n" \
 214:Middlewares/Third_Party/FreeRTOS/Source/portable/GCC/ARM_CM4F/portmacro.h **** 		"	mov %1, %2												\n"	\
 215:Middlewares/Third_Party/FreeRTOS/Source/portable/GCC/ARM_CM4F/portmacro.h **** 		"	msr basepri, %1											\n" \
 216:Middlewares/Third_Party/FreeRTOS/Source/portable/GCC/ARM_CM4F/portmacro.h **** 		"	isb														\n" \
 217:Middlewares/Third_Party/FreeRTOS/Source/portable/GCC/ARM_CM4F/portmacro.h **** 		"	dsb														\n" \
 218:Middlewares/Third_Party/FreeRTOS/Source/portable/GCC/ARM_CM4F/portmacro.h **** 		:"=r" (ulOriginalBASEPRI), "=r" (ulNewBASEPRI) : "i" ( configMAX_SYSCALL_INTERRUPT_PRIORITY ) : "
 219:Middlewares/Third_Party/FreeRTOS/Source/portable/GCC/ARM_CM4F/portmacro.h **** 	);
 220:Middlewares/Third_Party/FreeRTOS/Source/portable/GCC/ARM_CM4F/portmacro.h **** 
 221:Middlewares/Third_Party/FreeRTOS/Source/portable/GCC/ARM_CM4F/portmacro.h **** 	/* This return will not be reached but is necessary to prevent compiler
 222:Middlewares/Third_Party/FreeRTOS/Source/portable/GCC/ARM_CM4F/portmacro.h **** 	warnings. */
 223:Middlewares/Third_Party/FreeRTOS/Source/portable/GCC/ARM_CM4F/portmacro.h **** 	return ulOriginalBASEPRI;
 843              		.loc 2 223 2 view .LVU247
 844              		.loc 2 223 2 is_stmt 0 view .LVU248
 845              		.thumb
 846              		.syntax unified
 847              	.LBE58:
 848              	.LBE57:
 496:Middlewares/Third_Party/FreeRTOS/Source/event_groups.c **** 	}
 849              		.loc 1 496 3 is_stmt 1 view .LVU249
 496:Middlewares/Third_Party/FreeRTOS/Source/event_groups.c **** 	}
 850              		.loc 1 496 12 is_stmt 0 view .LVU250
 851 0014 0068     		ldr	r0, [r0]
 852              	.LVL67:
 498:Middlewares/Third_Party/FreeRTOS/Source/event_groups.c **** 
 853              		.loc 1 498 2 is_stmt 1 view .LVU251
 854              	.LBB59:
 855              	.LBI59:
 224:Middlewares/Third_Party/FreeRTOS/Source/portable/GCC/ARM_CM4F/portmacro.h **** }
 225:Middlewares/Third_Party/FreeRTOS/Source/portable/GCC/ARM_CM4F/portmacro.h **** /*-----------------------------------------------------------*/
 226:Middlewares/Third_Party/FreeRTOS/Source/portable/GCC/ARM_CM4F/portmacro.h **** 
 227:Middlewares/Third_Party/FreeRTOS/Source/portable/GCC/ARM_CM4F/portmacro.h **** portFORCE_INLINE static void vPortSetBASEPRI( uint32_t ulNewMaskValue )
 856              		.loc 2 227 30 view .LVU252
 857              	.LBB60:
 228:Middlewares/Third_Party/FreeRTOS/Source/portable/GCC/ARM_CM4F/portmacro.h **** {
 229:Middlewares/Third_Party/FreeRTOS/Source/portable/GCC/ARM_CM4F/portmacro.h **** 	__asm volatile
 858              		.loc 2 229 2 view .LVU253
 859              		.syntax unified
 860              	@ 229 "Middlewares/Third_Party/FreeRTOS/Source/portable/GCC/ARM_CM4F/portmacro.h" 1
 861 0016 83F31188 			msr basepri, r3	
 862              	@ 0 "" 2
 863              	.LVL68:
 864              		.loc 2 229 2 is_stmt 0 view .LVU254
 865              		.thumb
 866              		.syntax unified
 867              	.LBE60:
 868              	.LBE59:
 500:Middlewares/Third_Party/FreeRTOS/Source/event_groups.c **** }
 869              		.loc 1 500 2 is_stmt 1 view .LVU255
 501:Middlewares/Third_Party/FreeRTOS/Source/event_groups.c **** /*-----------------------------------------------------------*/
 870              		.loc 1 501 1 is_stmt 0 view .LVU256
 871 001a 7047     		bx	lr
 872              		.cfi_endproc
 873              	.LFE10:
 875              		.section	.text.xEventGroupSetBits,"ax",%progbits
ARM GAS  /var/folders/bp/hbn4m0qx5z54srgsq53w67zh0000gr/T//ccFnrHoI.s 			page 36


 876              		.align	1
 877              		.global	xEventGroupSetBits
 878              		.syntax unified
 879              		.thumb
 880              		.thumb_func
 881              		.fpu fpv4-sp-d16
 883              	xEventGroupSetBits:
 884              	.LVL69:
 885              	.LFB11:
 505:Middlewares/Third_Party/FreeRTOS/Source/event_groups.c **** ListItem_t *pxListItem, *pxNext;
 886              		.loc 1 505 1 is_stmt 1 view -0
 887              		.cfi_startproc
 888              		@ args = 0, pretend = 0, frame = 0
 889              		@ frame_needed = 0, uses_anonymous_args = 0
 505:Middlewares/Third_Party/FreeRTOS/Source/event_groups.c **** ListItem_t *pxListItem, *pxNext;
 890              		.loc 1 505 1 is_stmt 0 view .LVU258
 891 0000 F8B5     		push	{r3, r4, r5, r6, r7, lr}
 892              	.LCFI12:
 893              		.cfi_def_cfa_offset 24
 894              		.cfi_offset 3, -24
 895              		.cfi_offset 4, -20
 896              		.cfi_offset 5, -16
 897              		.cfi_offset 6, -12
 898              		.cfi_offset 7, -8
 899              		.cfi_offset 14, -4
 506:Middlewares/Third_Party/FreeRTOS/Source/event_groups.c **** ListItem_t const *pxListEnd;
 900              		.loc 1 506 1 is_stmt 1 view .LVU259
 507:Middlewares/Third_Party/FreeRTOS/Source/event_groups.c **** List_t *pxList;
 901              		.loc 1 507 1 view .LVU260
 508:Middlewares/Third_Party/FreeRTOS/Source/event_groups.c **** EventBits_t uxBitsToClear = 0, uxBitsWaitedFor, uxControlBits;
 902              		.loc 1 508 1 view .LVU261
 509:Middlewares/Third_Party/FreeRTOS/Source/event_groups.c **** EventGroup_t *pxEventBits = ( EventGroup_t * ) xEventGroup;
 903              		.loc 1 509 1 view .LVU262
 904              	.LVL70:
 510:Middlewares/Third_Party/FreeRTOS/Source/event_groups.c **** BaseType_t xMatchFound = pdFALSE;
 905              		.loc 1 510 1 view .LVU263
 511:Middlewares/Third_Party/FreeRTOS/Source/event_groups.c **** 
 906              		.loc 1 511 1 view .LVU264
 515:Middlewares/Third_Party/FreeRTOS/Source/event_groups.c **** 	configASSERT( ( uxBitsToSet & eventEVENT_BITS_CONTROL_BYTES ) == 0 );
 907              		.loc 1 515 2 view .LVU265
 908 0002 68B1     		cbz	r0, .L66
 909 0004 0D46     		mov	r5, r1
 910 0006 0446     		mov	r4, r0
 515:Middlewares/Third_Party/FreeRTOS/Source/event_groups.c **** 	configASSERT( ( uxBitsToSet & eventEVENT_BITS_CONTROL_BYTES ) == 0 );
 911              		.loc 1 515 29 discriminator 2 view .LVU266
 516:Middlewares/Third_Party/FreeRTOS/Source/event_groups.c **** 
 912              		.loc 1 516 2 discriminator 2 view .LVU267
 913 0008 11F07F47 		ands	r7, r1, #-16777216
 914 000c 11D0     		beq	.L57
 516:Middlewares/Third_Party/FreeRTOS/Source/event_groups.c **** 
 915              		.loc 1 516 2 view .LVU268
 916              	.LBB61:
 917              	.LBI61:
 191:Middlewares/Third_Party/FreeRTOS/Source/portable/GCC/ARM_CM4F/portmacro.h **** {
 918              		.loc 2 191 30 view .LVU269
 919              	.LBB62:
 193:Middlewares/Third_Party/FreeRTOS/Source/portable/GCC/ARM_CM4F/portmacro.h **** 
ARM GAS  /var/folders/bp/hbn4m0qx5z54srgsq53w67zh0000gr/T//ccFnrHoI.s 			page 37


 920              		.loc 2 193 1 view .LVU270
 195:Middlewares/Third_Party/FreeRTOS/Source/portable/GCC/ARM_CM4F/portmacro.h **** 	(
 921              		.loc 2 195 2 view .LVU271
 922              		.syntax unified
 923              	@ 195 "Middlewares/Third_Party/FreeRTOS/Source/portable/GCC/ARM_CM4F/portmacro.h" 1
 924 000e 4FF05003 			mov r3, #80												
 925 0012 83F31188 		msr basepri, r3											
 926 0016 BFF36F8F 		isb														
 927 001a BFF34F8F 		dsb														
 928              	
 929              	@ 0 "" 2
 930              	.LVL71:
 931              		.thumb
 932              		.syntax unified
 933              	.L58:
 195:Middlewares/Third_Party/FreeRTOS/Source/portable/GCC/ARM_CM4F/portmacro.h **** 	(
 934              		.loc 2 195 2 is_stmt 0 view .LVU272
 935              	.LBE62:
 936              	.LBE61:
 516:Middlewares/Third_Party/FreeRTOS/Source/event_groups.c **** 
 937              		.loc 1 516 2 is_stmt 1 discriminator 2 view .LVU273
 516:Middlewares/Third_Party/FreeRTOS/Source/event_groups.c **** 
 938              		.loc 1 516 2 discriminator 2 view .LVU274
 516:Middlewares/Third_Party/FreeRTOS/Source/event_groups.c **** 
 939              		.loc 1 516 2 discriminator 2 view .LVU275
 940 001e FEE7     		b	.L58
 941              	.L66:
 515:Middlewares/Third_Party/FreeRTOS/Source/event_groups.c **** 	configASSERT( ( uxBitsToSet & eventEVENT_BITS_CONTROL_BYTES ) == 0 );
 942              		.loc 1 515 2 view .LVU276
 943              	.LBB63:
 944              	.LBI63:
 191:Middlewares/Third_Party/FreeRTOS/Source/portable/GCC/ARM_CM4F/portmacro.h **** {
 945              		.loc 2 191 30 view .LVU277
 946              	.LBB64:
 193:Middlewares/Third_Party/FreeRTOS/Source/portable/GCC/ARM_CM4F/portmacro.h **** 
 947              		.loc 2 193 1 view .LVU278
 195:Middlewares/Third_Party/FreeRTOS/Source/portable/GCC/ARM_CM4F/portmacro.h **** 	(
 948              		.loc 2 195 2 view .LVU279
 949              		.syntax unified
 950              	@ 195 "Middlewares/Third_Party/FreeRTOS/Source/portable/GCC/ARM_CM4F/portmacro.h" 1
 951 0020 4FF05003 			mov r3, #80												
 952 0024 83F31188 		msr basepri, r3											
 953 0028 BFF36F8F 		isb														
 954 002c BFF34F8F 		dsb														
 955              	
 956              	@ 0 "" 2
 957              	.LVL72:
 958              		.thumb
 959              		.syntax unified
 960              	.L56:
 195:Middlewares/Third_Party/FreeRTOS/Source/portable/GCC/ARM_CM4F/portmacro.h **** 	(
 961              		.loc 2 195 2 is_stmt 0 view .LVU280
 962              	.LBE64:
 963              	.LBE63:
 515:Middlewares/Third_Party/FreeRTOS/Source/event_groups.c **** 	configASSERT( ( uxBitsToSet & eventEVENT_BITS_CONTROL_BYTES ) == 0 );
 964              		.loc 1 515 2 is_stmt 1 discriminator 1 view .LVU281
 515:Middlewares/Third_Party/FreeRTOS/Source/event_groups.c **** 	configASSERT( ( uxBitsToSet & eventEVENT_BITS_CONTROL_BYTES ) == 0 );
ARM GAS  /var/folders/bp/hbn4m0qx5z54srgsq53w67zh0000gr/T//ccFnrHoI.s 			page 38


 965              		.loc 1 515 2 discriminator 1 view .LVU282
 515:Middlewares/Third_Party/FreeRTOS/Source/event_groups.c **** 	configASSERT( ( uxBitsToSet & eventEVENT_BITS_CONTROL_BYTES ) == 0 );
 966              		.loc 1 515 2 discriminator 1 view .LVU283
 967 0030 FEE7     		b	.L56
 968              	.L57:
 516:Middlewares/Third_Party/FreeRTOS/Source/event_groups.c **** 
 969              		.loc 1 516 70 discriminator 2 view .LVU284
 518:Middlewares/Third_Party/FreeRTOS/Source/event_groups.c **** 	pxListEnd = listGET_END_MARKER( pxList ); /*lint !e826 !e740 The mini list structure is used as th
 970              		.loc 1 518 2 discriminator 2 view .LVU285
 971              	.LVL73:
 519:Middlewares/Third_Party/FreeRTOS/Source/event_groups.c **** 	vTaskSuspendAll();
 972              		.loc 1 519 2 discriminator 2 view .LVU286
 519:Middlewares/Third_Party/FreeRTOS/Source/event_groups.c **** 	vTaskSuspendAll();
 973              		.loc 1 519 12 is_stmt 0 discriminator 2 view .LVU287
 974 0032 00F10C06 		add	r6, r0, #12
 975              	.LVL74:
 520:Middlewares/Third_Party/FreeRTOS/Source/event_groups.c **** 	{
 976              		.loc 1 520 2 is_stmt 1 discriminator 2 view .LVU288
 977 0036 FFF7FEFF 		bl	vTaskSuspendAll
 978              	.LVL75:
 522:Middlewares/Third_Party/FreeRTOS/Source/event_groups.c **** 
 979              		.loc 1 522 56 discriminator 2 view .LVU289
 524:Middlewares/Third_Party/FreeRTOS/Source/event_groups.c **** 
 980              		.loc 1 524 3 discriminator 2 view .LVU290
 524:Middlewares/Third_Party/FreeRTOS/Source/event_groups.c **** 
 981              		.loc 1 524 14 is_stmt 0 discriminator 2 view .LVU291
 982 003a 2069     		ldr	r0, [r4, #16]
 983              	.LVL76:
 527:Middlewares/Third_Party/FreeRTOS/Source/event_groups.c **** 
 984              		.loc 1 527 3 is_stmt 1 discriminator 2 view .LVU292
 527:Middlewares/Third_Party/FreeRTOS/Source/event_groups.c **** 
 985              		.loc 1 527 28 is_stmt 0 discriminator 2 view .LVU293
 986 003c 2368     		ldr	r3, [r4]
 987 003e 2B43     		orrs	r3, r3, r5
 988 0040 2360     		str	r3, [r4]
 530:Middlewares/Third_Party/FreeRTOS/Source/event_groups.c **** 		{
 989              		.loc 1 530 3 is_stmt 1 discriminator 2 view .LVU294
 530:Middlewares/Third_Party/FreeRTOS/Source/event_groups.c **** 		{
 990              		.loc 1 530 8 is_stmt 0 discriminator 2 view .LVU295
 991 0042 0AE0     		b	.L59
 992              	.LVL77:
 993              	.L60:
 552:Middlewares/Third_Party/FreeRTOS/Source/event_groups.c **** 			{
 994              		.loc 1 552 9 is_stmt 1 view .LVU296
 552:Middlewares/Third_Party/FreeRTOS/Source/event_groups.c **** 			{
 995              		.loc 1 552 44 is_stmt 0 view .LVU297
 996 0044 2168     		ldr	r1, [r4]
 552:Middlewares/Third_Party/FreeRTOS/Source/event_groups.c **** 			{
 997              		.loc 1 552 11 view .LVU298
 998 0046 32EA0101 		bics	r1, r2, r1
 999 004a 05D1     		bne	.L62
 552:Middlewares/Third_Party/FreeRTOS/Source/event_groups.c **** 			{
 1000              		.loc 1 552 11 view .LVU299
 1001 004c 11E0     		b	.L61
 1002              	.LVL78:
 1003              	.L63:
 571:Middlewares/Third_Party/FreeRTOS/Source/event_groups.c **** 				}
ARM GAS  /var/folders/bp/hbn4m0qx5z54srgsq53w67zh0000gr/T//ccFnrHoI.s 			page 39


 1004              		.loc 1 571 30 is_stmt 1 view .LVU300
 579:Middlewares/Third_Party/FreeRTOS/Source/event_groups.c **** 			}
 1005              		.loc 1 579 5 view .LVU301
 579:Middlewares/Third_Party/FreeRTOS/Source/event_groups.c **** 			}
 1006              		.loc 1 579 63 is_stmt 0 view .LVU302
 1007 004e 2168     		ldr	r1, [r4]
 579:Middlewares/Third_Party/FreeRTOS/Source/event_groups.c **** 			}
 1008              		.loc 1 579 5 view .LVU303
 1009 0050 41F00071 		orr	r1, r1, #33554432
 1010 0054 FFF7FEFF 		bl	vTaskRemoveFromUnorderedEventList
 1011              	.LVL79:
 1012              	.L62:
 505:Middlewares/Third_Party/FreeRTOS/Source/event_groups.c **** ListItem_t *pxListItem, *pxNext;
 1013              		.loc 1 505 1 view .LVU304
 1014 0058 2846     		mov	r0, r5
 1015              	.LVL80:
 1016              	.L59:
 530:Middlewares/Third_Party/FreeRTOS/Source/event_groups.c **** 		{
 1017              		.loc 1 530 8 is_stmt 1 view .LVU305
 1018 005a B042     		cmp	r0, r6
 1019 005c 0ED0     		beq	.L67
 532:Middlewares/Third_Party/FreeRTOS/Source/event_groups.c **** 			uxBitsWaitedFor = listGET_LIST_ITEM_VALUE( pxListItem );
 1020              		.loc 1 532 4 view .LVU306
 532:Middlewares/Third_Party/FreeRTOS/Source/event_groups.c **** 			uxBitsWaitedFor = listGET_LIST_ITEM_VALUE( pxListItem );
 1021              		.loc 1 532 11 is_stmt 0 view .LVU307
 1022 005e 4568     		ldr	r5, [r0, #4]
 1023              	.LVL81:
 533:Middlewares/Third_Party/FreeRTOS/Source/event_groups.c **** 			xMatchFound = pdFALSE;
 1024              		.loc 1 533 4 is_stmt 1 view .LVU308
 533:Middlewares/Third_Party/FreeRTOS/Source/event_groups.c **** 			xMatchFound = pdFALSE;
 1025              		.loc 1 533 20 is_stmt 0 view .LVU309
 1026 0060 0368     		ldr	r3, [r0]
 1027              	.LVL82:
 534:Middlewares/Third_Party/FreeRTOS/Source/event_groups.c **** 
 1028              		.loc 1 534 4 is_stmt 1 view .LVU310
 537:Middlewares/Third_Party/FreeRTOS/Source/event_groups.c **** 			uxBitsWaitedFor &= ~eventEVENT_BITS_CONTROL_BYTES;
 1029              		.loc 1 537 4 view .LVU311
 538:Middlewares/Third_Party/FreeRTOS/Source/event_groups.c **** 
 1030              		.loc 1 538 4 view .LVU312
 538:Middlewares/Third_Party/FreeRTOS/Source/event_groups.c **** 
 1031              		.loc 1 538 20 is_stmt 0 view .LVU313
 1032 0062 23F07F42 		bic	r2, r3, #-16777216
 1033              	.LVL83:
 540:Middlewares/Third_Party/FreeRTOS/Source/event_groups.c **** 			{
 1034              		.loc 1 540 4 is_stmt 1 view .LVU314
 540:Middlewares/Third_Party/FreeRTOS/Source/event_groups.c **** 			{
 1035              		.loc 1 540 6 is_stmt 0 view .LVU315
 1036 0066 13F0806F 		tst	r3, #67108864
 1037 006a EBD1     		bne	.L60
 543:Middlewares/Third_Party/FreeRTOS/Source/event_groups.c **** 				{
 1038              		.loc 1 543 5 is_stmt 1 view .LVU316
 543:Middlewares/Third_Party/FreeRTOS/Source/event_groups.c **** 				{
 1039              		.loc 1 543 40 is_stmt 0 view .LVU317
 1040 006c 2168     		ldr	r1, [r4]
 543:Middlewares/Third_Party/FreeRTOS/Source/event_groups.c **** 				{
 1041              		.loc 1 543 7 view .LVU318
 1042 006e 1142     		tst	r1, r2
ARM GAS  /var/folders/bp/hbn4m0qx5z54srgsq53w67zh0000gr/T//ccFnrHoI.s 			page 40


 1043 0070 F2D0     		beq	.L62
 1044              	.L61:
 1045              	.LVL84:
 565:Middlewares/Third_Party/FreeRTOS/Source/event_groups.c **** 				{
 1046              		.loc 1 565 5 is_stmt 1 view .LVU319
 565:Middlewares/Third_Party/FreeRTOS/Source/event_groups.c **** 				{
 1047              		.loc 1 565 7 is_stmt 0 view .LVU320
 1048 0072 13F0807F 		tst	r3, #16777216
 1049 0076 EAD0     		beq	.L63
 567:Middlewares/Third_Party/FreeRTOS/Source/event_groups.c **** 				}
 1050              		.loc 1 567 6 is_stmt 1 view .LVU321
 567:Middlewares/Third_Party/FreeRTOS/Source/event_groups.c **** 				}
 1051              		.loc 1 567 20 is_stmt 0 view .LVU322
 1052 0078 1743     		orrs	r7, r7, r2
 1053              	.LVL85:
 567:Middlewares/Third_Party/FreeRTOS/Source/event_groups.c **** 				}
 1054              		.loc 1 567 20 view .LVU323
 1055 007a E8E7     		b	.L63
 1056              	.LVL86:
 1057              	.L67:
 590:Middlewares/Third_Party/FreeRTOS/Source/event_groups.c **** 	}
 1058              		.loc 1 590 3 is_stmt 1 view .LVU324
 590:Middlewares/Third_Party/FreeRTOS/Source/event_groups.c **** 	}
 1059              		.loc 1 590 28 is_stmt 0 view .LVU325
 1060 007c 2368     		ldr	r3, [r4]
 1061 007e 23EA0703 		bic	r3, r3, r7
 1062 0082 2360     		str	r3, [r4]
 592:Middlewares/Third_Party/FreeRTOS/Source/event_groups.c **** 
 1063              		.loc 1 592 2 is_stmt 1 view .LVU326
 592:Middlewares/Third_Party/FreeRTOS/Source/event_groups.c **** 
 1064              		.loc 1 592 11 is_stmt 0 view .LVU327
 1065 0084 FFF7FEFF 		bl	xTaskResumeAll
 1066              	.LVL87:
 594:Middlewares/Third_Party/FreeRTOS/Source/event_groups.c **** }
 1067              		.loc 1 594 2 is_stmt 1 view .LVU328
 595:Middlewares/Third_Party/FreeRTOS/Source/event_groups.c **** /*-----------------------------------------------------------*/
 1068              		.loc 1 595 1 is_stmt 0 view .LVU329
 1069 0088 2068     		ldr	r0, [r4]
 1070 008a F8BD     		pop	{r3, r4, r5, r6, r7, pc}
 595:Middlewares/Third_Party/FreeRTOS/Source/event_groups.c **** /*-----------------------------------------------------------*/
 1071              		.loc 1 595 1 view .LVU330
 1072              		.cfi_endproc
 1073              	.LFE11:
 1075              		.section	.text.xEventGroupSync,"ax",%progbits
 1076              		.align	1
 1077              		.global	xEventGroupSync
 1078              		.syntax unified
 1079              		.thumb
 1080              		.thumb_func
 1081              		.fpu fpv4-sp-d16
 1083              	xEventGroupSync:
 1084              	.LVL88:
 1085              	.LFB6:
 177:Middlewares/Third_Party/FreeRTOS/Source/event_groups.c **** EventBits_t uxOriginalBitValue, uxReturn;
 1086              		.loc 1 177 1 is_stmt 1 view -0
 1087              		.cfi_startproc
 1088              		@ args = 0, pretend = 0, frame = 0
ARM GAS  /var/folders/bp/hbn4m0qx5z54srgsq53w67zh0000gr/T//ccFnrHoI.s 			page 41


 1089              		@ frame_needed = 0, uses_anonymous_args = 0
 177:Middlewares/Third_Party/FreeRTOS/Source/event_groups.c **** EventBits_t uxOriginalBitValue, uxReturn;
 1090              		.loc 1 177 1 is_stmt 0 view .LVU332
 1091 0000 2DE9F843 		push	{r3, r4, r5, r6, r7, r8, r9, lr}
 1092              	.LCFI13:
 1093              		.cfi_def_cfa_offset 32
 1094              		.cfi_offset 3, -32
 1095              		.cfi_offset 4, -28
 1096              		.cfi_offset 5, -24
 1097              		.cfi_offset 6, -20
 1098              		.cfi_offset 7, -16
 1099              		.cfi_offset 8, -12
 1100              		.cfi_offset 9, -8
 1101              		.cfi_offset 14, -4
 178:Middlewares/Third_Party/FreeRTOS/Source/event_groups.c **** EventGroup_t *pxEventBits = ( EventGroup_t * ) xEventGroup;
 1102              		.loc 1 178 1 is_stmt 1 view .LVU333
 179:Middlewares/Third_Party/FreeRTOS/Source/event_groups.c **** BaseType_t xAlreadyYielded;
 1103              		.loc 1 179 1 view .LVU334
 1104              	.LVL89:
 180:Middlewares/Third_Party/FreeRTOS/Source/event_groups.c **** BaseType_t xTimeoutOccurred = pdFALSE;
 1105              		.loc 1 180 1 view .LVU335
 181:Middlewares/Third_Party/FreeRTOS/Source/event_groups.c **** 
 1106              		.loc 1 181 1 view .LVU336
 183:Middlewares/Third_Party/FreeRTOS/Source/event_groups.c **** 	configASSERT( uxBitsToWaitFor != 0 );
 1107              		.loc 1 183 2 view .LVU337
 1108 0004 12F07F48 		ands	r8, r2, #-16777216
 1109 0008 08D0     		beq	.L69
 183:Middlewares/Third_Party/FreeRTOS/Source/event_groups.c **** 	configASSERT( uxBitsToWaitFor != 0 );
 1110              		.loc 1 183 2 view .LVU338
 1111              	.LBB65:
 1112              	.LBI65:
 191:Middlewares/Third_Party/FreeRTOS/Source/portable/GCC/ARM_CM4F/portmacro.h **** {
 1113              		.loc 2 191 30 view .LVU339
 1114              	.LBB66:
 193:Middlewares/Third_Party/FreeRTOS/Source/portable/GCC/ARM_CM4F/portmacro.h **** 
 1115              		.loc 2 193 1 view .LVU340
 195:Middlewares/Third_Party/FreeRTOS/Source/portable/GCC/ARM_CM4F/portmacro.h **** 	(
 1116              		.loc 2 195 2 view .LVU341
 1117              		.syntax unified
 1118              	@ 195 "Middlewares/Third_Party/FreeRTOS/Source/portable/GCC/ARM_CM4F/portmacro.h" 1
 1119 000a 4FF05003 			mov r3, #80												
 1120 000e 83F31188 		msr basepri, r3											
 1121 0012 BFF36F8F 		isb														
 1122 0016 BFF34F8F 		dsb														
 1123              	
 1124              	@ 0 "" 2
 1125              	.LVL90:
 1126              		.thumb
 1127              		.syntax unified
 1128              	.L70:
 195:Middlewares/Third_Party/FreeRTOS/Source/portable/GCC/ARM_CM4F/portmacro.h **** 	(
 1129              		.loc 2 195 2 is_stmt 0 view .LVU342
 1130              	.LBE66:
 1131              	.LBE65:
 183:Middlewares/Third_Party/FreeRTOS/Source/event_groups.c **** 	configASSERT( uxBitsToWaitFor != 0 );
 1132              		.loc 1 183 2 is_stmt 1 discriminator 1 view .LVU343
 183:Middlewares/Third_Party/FreeRTOS/Source/event_groups.c **** 	configASSERT( uxBitsToWaitFor != 0 );
ARM GAS  /var/folders/bp/hbn4m0qx5z54srgsq53w67zh0000gr/T//ccFnrHoI.s 			page 42


 1133              		.loc 1 183 2 discriminator 1 view .LVU344
 183:Middlewares/Third_Party/FreeRTOS/Source/event_groups.c **** 	configASSERT( uxBitsToWaitFor != 0 );
 1134              		.loc 1 183 2 discriminator 1 view .LVU345
 1135 001a FEE7     		b	.L70
 1136              	.LVL91:
 1137              	.L69:
 183:Middlewares/Third_Party/FreeRTOS/Source/event_groups.c **** 	configASSERT( uxBitsToWaitFor != 0 );
 1138              		.loc 1 183 2 is_stmt 0 discriminator 1 view .LVU346
 1139 001c 0746     		mov	r7, r0
 1140 001e 0E46     		mov	r6, r1
 1141 0020 1446     		mov	r4, r2
 1142 0022 1D46     		mov	r5, r3
 183:Middlewares/Third_Party/FreeRTOS/Source/event_groups.c **** 	configASSERT( uxBitsToWaitFor != 0 );
 1143              		.loc 1 183 74 is_stmt 1 discriminator 2 view .LVU347
 184:Middlewares/Third_Party/FreeRTOS/Source/event_groups.c **** 	#if ( ( INCLUDE_xTaskGetSchedulerState == 1 ) || ( configUSE_TIMERS == 1 ) )
 1144              		.loc 1 184 2 discriminator 2 view .LVU348
 1145 0024 42B9     		cbnz	r2, .L71
 184:Middlewares/Third_Party/FreeRTOS/Source/event_groups.c **** 	#if ( ( INCLUDE_xTaskGetSchedulerState == 1 ) || ( configUSE_TIMERS == 1 ) )
 1146              		.loc 1 184 2 view .LVU349
 1147              	.LBB67:
 1148              	.LBI67:
 191:Middlewares/Third_Party/FreeRTOS/Source/portable/GCC/ARM_CM4F/portmacro.h **** {
 1149              		.loc 2 191 30 view .LVU350
 1150              	.LBB68:
 193:Middlewares/Third_Party/FreeRTOS/Source/portable/GCC/ARM_CM4F/portmacro.h **** 
 1151              		.loc 2 193 1 view .LVU351
 195:Middlewares/Third_Party/FreeRTOS/Source/portable/GCC/ARM_CM4F/portmacro.h **** 	(
 1152              		.loc 2 195 2 view .LVU352
 1153              		.syntax unified
 1154              	@ 195 "Middlewares/Third_Party/FreeRTOS/Source/portable/GCC/ARM_CM4F/portmacro.h" 1
 1155 0026 4FF05003 			mov r3, #80												
 1156 002a 83F31188 		msr basepri, r3											
 1157 002e BFF36F8F 		isb														
 1158 0032 BFF34F8F 		dsb														
 1159              	
 1160              	@ 0 "" 2
 1161              	.LVL92:
 1162              		.thumb
 1163              		.syntax unified
 1164              	.L72:
 195:Middlewares/Third_Party/FreeRTOS/Source/portable/GCC/ARM_CM4F/portmacro.h **** 	(
 1165              		.loc 2 195 2 is_stmt 0 view .LVU353
 1166              	.LBE68:
 1167              	.LBE67:
 184:Middlewares/Third_Party/FreeRTOS/Source/event_groups.c **** 	#if ( ( INCLUDE_xTaskGetSchedulerState == 1 ) || ( configUSE_TIMERS == 1 ) )
 1168              		.loc 1 184 2 is_stmt 1 discriminator 2 view .LVU354
 184:Middlewares/Third_Party/FreeRTOS/Source/event_groups.c **** 	#if ( ( INCLUDE_xTaskGetSchedulerState == 1 ) || ( configUSE_TIMERS == 1 ) )
 1169              		.loc 1 184 2 discriminator 2 view .LVU355
 184:Middlewares/Third_Party/FreeRTOS/Source/event_groups.c **** 	#if ( ( INCLUDE_xTaskGetSchedulerState == 1 ) || ( configUSE_TIMERS == 1 ) )
 1170              		.loc 1 184 2 discriminator 2 view .LVU356
 1171 0036 FEE7     		b	.L72
 1172              	.LVL93:
 1173              	.L71:
 184:Middlewares/Third_Party/FreeRTOS/Source/event_groups.c **** 	#if ( ( INCLUDE_xTaskGetSchedulerState == 1 ) || ( configUSE_TIMERS == 1 ) )
 1174              		.loc 1 184 38 discriminator 2 view .LVU357
 187:Middlewares/Third_Party/FreeRTOS/Source/event_groups.c **** 	}
 1175              		.loc 1 187 3 discriminator 2 view .LVU358
ARM GAS  /var/folders/bp/hbn4m0qx5z54srgsq53w67zh0000gr/T//ccFnrHoI.s 			page 43


 1176 0038 FFF7FEFF 		bl	xTaskGetSchedulerState
 1177              	.LVL94:
 187:Middlewares/Third_Party/FreeRTOS/Source/event_groups.c **** 	}
 1178              		.loc 1 187 3 is_stmt 0 discriminator 2 view .LVU359
 1179 003c 48B9     		cbnz	r0, .L73
 1180 003e 45B1     		cbz	r5, .L73
 187:Middlewares/Third_Party/FreeRTOS/Source/event_groups.c **** 	}
 1181              		.loc 1 187 3 is_stmt 1 view .LVU360
 1182              	.LBB69:
 1183              	.LBI69:
 191:Middlewares/Third_Party/FreeRTOS/Source/portable/GCC/ARM_CM4F/portmacro.h **** {
 1184              		.loc 2 191 30 view .LVU361
 1185              	.LBB70:
 193:Middlewares/Third_Party/FreeRTOS/Source/portable/GCC/ARM_CM4F/portmacro.h **** 
 1186              		.loc 2 193 1 view .LVU362
 195:Middlewares/Third_Party/FreeRTOS/Source/portable/GCC/ARM_CM4F/portmacro.h **** 	(
 1187              		.loc 2 195 2 view .LVU363
 1188              		.syntax unified
 1189              	@ 195 "Middlewares/Third_Party/FreeRTOS/Source/portable/GCC/ARM_CM4F/portmacro.h" 1
 1190 0040 4FF05003 			mov r3, #80												
 1191 0044 83F31188 		msr basepri, r3											
 1192 0048 BFF36F8F 		isb														
 1193 004c BFF34F8F 		dsb														
 1194              	
 1195              	@ 0 "" 2
 1196              	.LVL95:
 1197              		.thumb
 1198              		.syntax unified
 1199              	.L74:
 195:Middlewares/Third_Party/FreeRTOS/Source/portable/GCC/ARM_CM4F/portmacro.h **** 	(
 1200              		.loc 2 195 2 is_stmt 0 view .LVU364
 1201              	.LBE70:
 1202              	.LBE69:
 187:Middlewares/Third_Party/FreeRTOS/Source/event_groups.c **** 	}
 1203              		.loc 1 187 3 is_stmt 1 discriminator 3 view .LVU365
 187:Middlewares/Third_Party/FreeRTOS/Source/event_groups.c **** 	}
 1204              		.loc 1 187 3 discriminator 3 view .LVU366
 187:Middlewares/Third_Party/FreeRTOS/Source/event_groups.c **** 	}
 1205              		.loc 1 187 3 discriminator 3 view .LVU367
 1206 0050 FEE7     		b	.L74
 1207              	.L73:
 187:Middlewares/Third_Party/FreeRTOS/Source/event_groups.c **** 	}
 1208              		.loc 1 187 104 discriminator 8 view .LVU368
 191:Middlewares/Third_Party/FreeRTOS/Source/event_groups.c **** 	{
 1209              		.loc 1 191 2 discriminator 8 view .LVU369
 1210 0052 FFF7FEFF 		bl	vTaskSuspendAll
 1211              	.LVL96:
 193:Middlewares/Third_Party/FreeRTOS/Source/event_groups.c **** 
 1212              		.loc 1 193 3 discriminator 8 view .LVU370
 193:Middlewares/Third_Party/FreeRTOS/Source/event_groups.c **** 
 1213              		.loc 1 193 22 is_stmt 0 discriminator 8 view .LVU371
 1214 0056 D7F80090 		ldr	r9, [r7]
 1215              	.LVL97:
 195:Middlewares/Third_Party/FreeRTOS/Source/event_groups.c **** 
 1216              		.loc 1 195 3 is_stmt 1 discriminator 8 view .LVU372
 195:Middlewares/Third_Party/FreeRTOS/Source/event_groups.c **** 
 1217              		.loc 1 195 12 is_stmt 0 discriminator 8 view .LVU373
ARM GAS  /var/folders/bp/hbn4m0qx5z54srgsq53w67zh0000gr/T//ccFnrHoI.s 			page 44


 1218 005a 3146     		mov	r1, r6
 1219 005c 3846     		mov	r0, r7
 1220 005e FFF7FEFF 		bl	xEventGroupSetBits
 1221              	.LVL98:
 197:Middlewares/Third_Party/FreeRTOS/Source/event_groups.c **** 		{
 1222              		.loc 1 197 3 is_stmt 1 discriminator 8 view .LVU374
 197:Middlewares/Third_Party/FreeRTOS/Source/event_groups.c **** 		{
 1223              		.loc 1 197 30 is_stmt 0 discriminator 8 view .LVU375
 1224 0062 49EA0606 		orr	r6, r9, r6
 1225              	.LVL99:
 197:Middlewares/Third_Party/FreeRTOS/Source/event_groups.c **** 		{
 1226              		.loc 1 197 5 discriminator 8 view .LVU376
 1227 0066 34EA0603 		bics	r3, r4, r6
 1228 006a 1AD0     		beq	.L83
 210:Middlewares/Third_Party/FreeRTOS/Source/event_groups.c **** 			{
 1229              		.loc 1 210 4 is_stmt 1 view .LVU377
 210:Middlewares/Third_Party/FreeRTOS/Source/event_groups.c **** 			{
 1230              		.loc 1 210 6 is_stmt 0 view .LVU378
 1231 006c FDB9     		cbnz	r5, .L84
 229:Middlewares/Third_Party/FreeRTOS/Source/event_groups.c **** 				xTimeoutOccurred = pdTRUE;
 1232              		.loc 1 229 5 is_stmt 1 view .LVU379
 229:Middlewares/Third_Party/FreeRTOS/Source/event_groups.c **** 				xTimeoutOccurred = pdTRUE;
 1233              		.loc 1 229 14 is_stmt 0 view .LVU380
 1234 006e 3E68     		ldr	r6, [r7]
 1235              	.LVL100:
 230:Middlewares/Third_Party/FreeRTOS/Source/event_groups.c **** 			}
 1236              		.loc 1 230 5 is_stmt 1 view .LVU381
 1237              	.L76:
 234:Middlewares/Third_Party/FreeRTOS/Source/event_groups.c **** 
 1238              		.loc 1 234 2 view .LVU382
 234:Middlewares/Third_Party/FreeRTOS/Source/event_groups.c **** 
 1239              		.loc 1 234 20 is_stmt 0 view .LVU383
 1240 0070 FFF7FEFF 		bl	xTaskResumeAll
 1241              	.LVL101:
 236:Middlewares/Third_Party/FreeRTOS/Source/event_groups.c **** 	{
 1242              		.loc 1 236 2 is_stmt 1 view .LVU384
 236:Middlewares/Third_Party/FreeRTOS/Source/event_groups.c **** 	{
 1243              		.loc 1 236 4 is_stmt 0 view .LVU385
 1244 0074 95B1     		cbz	r5, .L68
 238:Middlewares/Third_Party/FreeRTOS/Source/event_groups.c **** 		{
 1245              		.loc 1 238 3 is_stmt 1 view .LVU386
 238:Middlewares/Third_Party/FreeRTOS/Source/event_groups.c **** 		{
 1246              		.loc 1 238 5 is_stmt 0 view .LVU387
 1247 0076 48B9     		cbnz	r0, .L79
 240:Middlewares/Third_Party/FreeRTOS/Source/event_groups.c **** 		}
 1248              		.loc 1 240 4 is_stmt 1 view .LVU388
 1249 0078 4FF0E023 		mov	r3, #-536813568
 1250 007c 4FF08052 		mov	r2, #268435456
 1251 0080 C3F8042D 		str	r2, [r3, #3332]
 240:Middlewares/Third_Party/FreeRTOS/Source/event_groups.c **** 		}
 1252              		.loc 1 240 4 view .LVU389
 1253              		.syntax unified
 1254              	@ 240 "Middlewares/Third_Party/FreeRTOS/Source/event_groups.c" 1
 1255 0084 BFF34F8F 		dsb
 1256              	@ 0 "" 2
 240:Middlewares/Third_Party/FreeRTOS/Source/event_groups.c **** 		}
 1257              		.loc 1 240 4 view .LVU390
ARM GAS  /var/folders/bp/hbn4m0qx5z54srgsq53w67zh0000gr/T//ccFnrHoI.s 			page 45


 1258              	@ 240 "Middlewares/Third_Party/FreeRTOS/Source/event_groups.c" 1
 1259 0088 BFF36F8F 		isb
 1260              	@ 0 "" 2
 240:Middlewares/Third_Party/FreeRTOS/Source/event_groups.c **** 		}
 1261              		.loc 1 240 26 view .LVU391
 1262              		.thumb
 1263              		.syntax unified
 1264              	.L79:
 244:Middlewares/Third_Party/FreeRTOS/Source/event_groups.c **** 		}
 1265              		.loc 1 244 28 view .LVU392
 251:Middlewares/Third_Party/FreeRTOS/Source/event_groups.c **** 
 1266              		.loc 1 251 3 view .LVU393
 251:Middlewares/Third_Party/FreeRTOS/Source/event_groups.c **** 
 1267              		.loc 1 251 14 is_stmt 0 view .LVU394
 1268 008c FFF7FEFF 		bl	uxTaskResetEventItemValue
 1269              	.LVL102:
 251:Middlewares/Third_Party/FreeRTOS/Source/event_groups.c **** 
 1270              		.loc 1 251 14 view .LVU395
 1271 0090 0646     		mov	r6, r0
 1272              	.LVL103:
 253:Middlewares/Third_Party/FreeRTOS/Source/event_groups.c **** 		{
 1273              		.loc 1 253 3 is_stmt 1 view .LVU396
 253:Middlewares/Third_Party/FreeRTOS/Source/event_groups.c **** 		{
 1274              		.loc 1 253 5 is_stmt 0 view .LVU397
 1275 0092 10F0007F 		tst	r0, #33554432
 1276 0096 12D0     		beq	.L85
 1277              	.LVL104:
 1278              	.L80:
 280:Middlewares/Third_Party/FreeRTOS/Source/event_groups.c **** 
 1279              		.loc 1 280 3 is_stmt 1 view .LVU398
 284:Middlewares/Third_Party/FreeRTOS/Source/event_groups.c **** 	}
 1280              		.loc 1 284 3 view .LVU399
 284:Middlewares/Third_Party/FreeRTOS/Source/event_groups.c **** 	}
 1281              		.loc 1 284 12 is_stmt 0 view .LVU400
 1282 0098 26F07F46 		bic	r6, r6, #-16777216
 1283              	.LVL105:
 287:Middlewares/Third_Party/FreeRTOS/Source/event_groups.c **** 
 1284              		.loc 1 287 2 is_stmt 1 view .LVU401
 290:Middlewares/Third_Party/FreeRTOS/Source/event_groups.c **** 
 1285              		.loc 1 290 2 view .LVU402
 292:Middlewares/Third_Party/FreeRTOS/Source/event_groups.c **** }
 1286              		.loc 1 292 2 view .LVU403
 1287              	.L68:
 293:Middlewares/Third_Party/FreeRTOS/Source/event_groups.c **** /*-----------------------------------------------------------*/
 1288              		.loc 1 293 1 is_stmt 0 view .LVU404
 1289 009c 3046     		mov	r0, r6
 1290 009e BDE8F883 		pop	{r3, r4, r5, r6, r7, r8, r9, pc}
 1291              	.LVL106:
 1292              	.L83:
 200:Middlewares/Third_Party/FreeRTOS/Source/event_groups.c **** 
 1293              		.loc 1 200 4 is_stmt 1 view .LVU405
 204:Middlewares/Third_Party/FreeRTOS/Source/event_groups.c **** 
 1294              		.loc 1 204 4 view .LVU406
 204:Middlewares/Third_Party/FreeRTOS/Source/event_groups.c **** 
 1295              		.loc 1 204 29 is_stmt 0 view .LVU407
 1296 00a2 3B68     		ldr	r3, [r7]
 1297 00a4 23EA0403 		bic	r3, r3, r4
ARM GAS  /var/folders/bp/hbn4m0qx5z54srgsq53w67zh0000gr/T//ccFnrHoI.s 			page 46


 1298 00a8 3B60     		str	r3, [r7]
 206:Middlewares/Third_Party/FreeRTOS/Source/event_groups.c **** 		}
 1299              		.loc 1 206 4 is_stmt 1 view .LVU408
 1300              	.LVL107:
 206:Middlewares/Third_Party/FreeRTOS/Source/event_groups.c **** 		}
 1301              		.loc 1 206 17 is_stmt 0 view .LVU409
 1302 00aa 4546     		mov	r5, r8
 1303 00ac E0E7     		b	.L76
 1304              	.LVL108:
 1305              	.L84:
 212:Middlewares/Third_Party/FreeRTOS/Source/event_groups.c **** 
 1306              		.loc 1 212 77 is_stmt 1 view .LVU410
 217:Middlewares/Third_Party/FreeRTOS/Source/event_groups.c **** 
 1307              		.loc 1 217 5 view .LVU411
 1308 00ae 2A46     		mov	r2, r5
 1309 00b0 44F0A061 		orr	r1, r4, #83886080
 1310 00b4 381D     		adds	r0, r7, #4
 1311 00b6 FFF7FEFF 		bl	vTaskPlaceOnUnorderedEventList
 1312              	.LVL109:
 223:Middlewares/Third_Party/FreeRTOS/Source/event_groups.c **** 			}
 1313              		.loc 1 223 5 view .LVU412
 223:Middlewares/Third_Party/FreeRTOS/Source/event_groups.c **** 			}
 1314              		.loc 1 223 14 is_stmt 0 view .LVU413
 1315 00ba 4646     		mov	r6, r8
 1316 00bc D8E7     		b	.L76
 1317              	.LVL110:
 1318              	.L85:
 256:Middlewares/Third_Party/FreeRTOS/Source/event_groups.c **** 			{
 1319              		.loc 1 256 4 is_stmt 1 view .LVU414
 1320 00be FFF7FEFF 		bl	vPortEnterCritical
 1321              	.LVL111:
 258:Middlewares/Third_Party/FreeRTOS/Source/event_groups.c **** 
 1322              		.loc 1 258 5 view .LVU415
 258:Middlewares/Third_Party/FreeRTOS/Source/event_groups.c **** 
 1323              		.loc 1 258 14 is_stmt 0 view .LVU416
 1324 00c2 3E68     		ldr	r6, [r7]
 1325              	.LVL112:
 264:Middlewares/Third_Party/FreeRTOS/Source/event_groups.c **** 				{
 1326              		.loc 1 264 5 is_stmt 1 view .LVU417
 264:Middlewares/Third_Party/FreeRTOS/Source/event_groups.c **** 				{
 1327              		.loc 1 264 7 is_stmt 0 view .LVU418
 1328 00c4 34EA0603 		bics	r3, r4, r6
 1329 00c8 02D0     		beq	.L86
 1330              	.LVL113:
 1331              	.L81:
 270:Middlewares/Third_Party/FreeRTOS/Source/event_groups.c **** 				}
 1332              		.loc 1 270 30 is_stmt 1 view .LVU419
 273:Middlewares/Third_Party/FreeRTOS/Source/event_groups.c **** 
 1333              		.loc 1 273 4 view .LVU420
 1334 00ca FFF7FEFF 		bl	vPortExitCritical
 1335              	.LVL114:
 275:Middlewares/Third_Party/FreeRTOS/Source/event_groups.c **** 		}
 1336              		.loc 1 275 4 view .LVU421
 275:Middlewares/Third_Party/FreeRTOS/Source/event_groups.c **** 		}
 1337              		.loc 1 275 4 is_stmt 0 view .LVU422
 1338 00ce E3E7     		b	.L80
 1339              	.LVL115:
ARM GAS  /var/folders/bp/hbn4m0qx5z54srgsq53w67zh0000gr/T//ccFnrHoI.s 			page 47


 1340              	.L86:
 266:Middlewares/Third_Party/FreeRTOS/Source/event_groups.c **** 				}
 1341              		.loc 1 266 6 is_stmt 1 view .LVU423
 266:Middlewares/Third_Party/FreeRTOS/Source/event_groups.c **** 				}
 1342              		.loc 1 266 31 is_stmt 0 view .LVU424
 1343 00d0 26EA0404 		bic	r4, r6, r4
 1344              	.LVL116:
 266:Middlewares/Third_Party/FreeRTOS/Source/event_groups.c **** 				}
 1345              		.loc 1 266 31 view .LVU425
 1346 00d4 3C60     		str	r4, [r7]
 1347 00d6 F8E7     		b	.L81
 1348              		.cfi_endproc
 1349              	.LFE6:
 1351              		.section	.text.vEventGroupSetBitsCallback,"ax",%progbits
 1352              		.align	1
 1353              		.global	vEventGroupSetBitsCallback
 1354              		.syntax unified
 1355              		.thumb
 1356              		.thumb_func
 1357              		.fpu fpv4-sp-d16
 1359              	vEventGroupSetBitsCallback:
 1360              	.LVL117:
 1361              	.LFB13:
 643:Middlewares/Third_Party/FreeRTOS/Source/event_groups.c **** 	( void ) xEventGroupSetBits( pvEventGroup, ( EventBits_t ) ulBitsToSet );
 1362              		.loc 1 643 1 is_stmt 1 view -0
 1363              		.cfi_startproc
 1364              		@ args = 0, pretend = 0, frame = 0
 1365              		@ frame_needed = 0, uses_anonymous_args = 0
 643:Middlewares/Third_Party/FreeRTOS/Source/event_groups.c **** 	( void ) xEventGroupSetBits( pvEventGroup, ( EventBits_t ) ulBitsToSet );
 1366              		.loc 1 643 1 is_stmt 0 view .LVU427
 1367 0000 08B5     		push	{r3, lr}
 1368              	.LCFI14:
 1369              		.cfi_def_cfa_offset 8
 1370              		.cfi_offset 3, -8
 1371              		.cfi_offset 14, -4
 644:Middlewares/Third_Party/FreeRTOS/Source/event_groups.c **** }
 1372              		.loc 1 644 2 is_stmt 1 view .LVU428
 644:Middlewares/Third_Party/FreeRTOS/Source/event_groups.c **** }
 1373              		.loc 1 644 11 is_stmt 0 view .LVU429
 1374 0002 FFF7FEFF 		bl	xEventGroupSetBits
 1375              	.LVL118:
 645:Middlewares/Third_Party/FreeRTOS/Source/event_groups.c **** /*-----------------------------------------------------------*/
 1376              		.loc 1 645 1 view .LVU430
 1377 0006 08BD     		pop	{r3, pc}
 1378              		.cfi_endproc
 1379              	.LFE13:
 1381              		.section	.text.vEventGroupDelete,"ax",%progbits
 1382              		.align	1
 1383              		.global	vEventGroupDelete
 1384              		.syntax unified
 1385              		.thumb
 1386              		.thumb_func
 1387              		.fpu fpv4-sp-d16
 1389              	vEventGroupDelete:
 1390              	.LVL119:
 1391              	.LFB12:
 599:Middlewares/Third_Party/FreeRTOS/Source/event_groups.c **** EventGroup_t *pxEventBits = ( EventGroup_t * ) xEventGroup;
ARM GAS  /var/folders/bp/hbn4m0qx5z54srgsq53w67zh0000gr/T//ccFnrHoI.s 			page 48


 1392              		.loc 1 599 1 is_stmt 1 view -0
 1393              		.cfi_startproc
 1394              		@ args = 0, pretend = 0, frame = 0
 1395              		@ frame_needed = 0, uses_anonymous_args = 0
 599:Middlewares/Third_Party/FreeRTOS/Source/event_groups.c **** EventGroup_t *pxEventBits = ( EventGroup_t * ) xEventGroup;
 1396              		.loc 1 599 1 is_stmt 0 view .LVU432
 1397 0000 10B5     		push	{r4, lr}
 1398              	.LCFI15:
 1399              		.cfi_def_cfa_offset 8
 1400              		.cfi_offset 4, -8
 1401              		.cfi_offset 14, -4
 1402 0002 0446     		mov	r4, r0
 600:Middlewares/Third_Party/FreeRTOS/Source/event_groups.c **** const List_t *pxTasksWaitingForBits = &( pxEventBits->xTasksWaitingForBits );
 1403              		.loc 1 600 1 is_stmt 1 view .LVU433
 1404              	.LVL120:
 601:Middlewares/Third_Party/FreeRTOS/Source/event_groups.c **** 
 1405              		.loc 1 601 1 view .LVU434
 603:Middlewares/Third_Party/FreeRTOS/Source/event_groups.c **** 	{
 1406              		.loc 1 603 2 view .LVU435
 1407 0004 FFF7FEFF 		bl	vTaskSuspendAll
 1408              	.LVL121:
 605:Middlewares/Third_Party/FreeRTOS/Source/event_groups.c **** 
 1409              		.loc 1 605 41 view .LVU436
 607:Middlewares/Third_Party/FreeRTOS/Source/event_groups.c **** 		{
 1410              		.loc 1 607 3 view .LVU437
 1411              	.L90:
 607:Middlewares/Third_Party/FreeRTOS/Source/event_groups.c **** 		{
 1412              		.loc 1 607 8 view .LVU438
 607:Middlewares/Third_Party/FreeRTOS/Source/event_groups.c **** 		{
 1413              		.loc 1 607 10 is_stmt 0 view .LVU439
 1414 0008 6368     		ldr	r3, [r4, #4]
 607:Middlewares/Third_Party/FreeRTOS/Source/event_groups.c **** 		{
 1415              		.loc 1 607 8 view .LVU440
 1416 000a 93B1     		cbz	r3, .L96
 611:Middlewares/Third_Party/FreeRTOS/Source/event_groups.c **** 			vTaskRemoveFromUnorderedEventList( pxTasksWaitingForBits->xListEnd.pxNext, eventUNBLOCKED_DUE_TO
 1417              		.loc 1 611 4 is_stmt 1 view .LVU441
 1418 000c 2069     		ldr	r0, [r4, #16]
 1419 000e 04F10C03 		add	r3, r4, #12
 1420 0012 9842     		cmp	r0, r3
 1421 0014 04D0     		beq	.L97
 611:Middlewares/Third_Party/FreeRTOS/Source/event_groups.c **** 			vTaskRemoveFromUnorderedEventList( pxTasksWaitingForBits->xListEnd.pxNext, eventUNBLOCKED_DUE_TO
 1422              		.loc 1 611 121 discriminator 2 view .LVU442
 612:Middlewares/Third_Party/FreeRTOS/Source/event_groups.c **** 		}
 1423              		.loc 1 612 4 discriminator 2 view .LVU443
 1424 0016 4FF00071 		mov	r1, #33554432
 1425 001a FFF7FEFF 		bl	vTaskRemoveFromUnorderedEventList
 1426              	.LVL122:
 1427 001e F3E7     		b	.L90
 1428              	.L97:
 611:Middlewares/Third_Party/FreeRTOS/Source/event_groups.c **** 			vTaskRemoveFromUnorderedEventList( pxTasksWaitingForBits->xListEnd.pxNext, eventUNBLOCKED_DUE_TO
 1429              		.loc 1 611 4 view .LVU444
 1430              	.LBB71:
 1431              	.LBI71:
 191:Middlewares/Third_Party/FreeRTOS/Source/portable/GCC/ARM_CM4F/portmacro.h **** {
 1432              		.loc 2 191 30 view .LVU445
 1433              	.LBB72:
 193:Middlewares/Third_Party/FreeRTOS/Source/portable/GCC/ARM_CM4F/portmacro.h **** 
ARM GAS  /var/folders/bp/hbn4m0qx5z54srgsq53w67zh0000gr/T//ccFnrHoI.s 			page 49


 1434              		.loc 2 193 1 view .LVU446
 195:Middlewares/Third_Party/FreeRTOS/Source/portable/GCC/ARM_CM4F/portmacro.h **** 	(
 1435              		.loc 2 195 2 view .LVU447
 1436              		.syntax unified
 1437              	@ 195 "Middlewares/Third_Party/FreeRTOS/Source/portable/GCC/ARM_CM4F/portmacro.h" 1
 1438 0020 4FF05003 			mov r3, #80												
 1439 0024 83F31188 		msr basepri, r3											
 1440 0028 BFF36F8F 		isb														
 1441 002c BFF34F8F 		dsb														
 1442              	
 1443              	@ 0 "" 2
 1444              	.LVL123:
 1445              		.thumb
 1446              		.syntax unified
 1447              	.L92:
 195:Middlewares/Third_Party/FreeRTOS/Source/portable/GCC/ARM_CM4F/portmacro.h **** 	(
 1448              		.loc 2 195 2 is_stmt 0 view .LVU448
 1449              	.LBE72:
 1450              	.LBE71:
 611:Middlewares/Third_Party/FreeRTOS/Source/event_groups.c **** 			vTaskRemoveFromUnorderedEventList( pxTasksWaitingForBits->xListEnd.pxNext, eventUNBLOCKED_DUE_TO
 1451              		.loc 1 611 4 is_stmt 1 discriminator 1 view .LVU449
 611:Middlewares/Third_Party/FreeRTOS/Source/event_groups.c **** 			vTaskRemoveFromUnorderedEventList( pxTasksWaitingForBits->xListEnd.pxNext, eventUNBLOCKED_DUE_TO
 1452              		.loc 1 611 4 discriminator 1 view .LVU450
 611:Middlewares/Third_Party/FreeRTOS/Source/event_groups.c **** 			vTaskRemoveFromUnorderedEventList( pxTasksWaitingForBits->xListEnd.pxNext, eventUNBLOCKED_DUE_TO
 1453              		.loc 1 611 4 discriminator 1 view .LVU451
 1454 0030 FEE7     		b	.L92
 1455              	.L96:
 625:Middlewares/Third_Party/FreeRTOS/Source/event_groups.c **** 			{
 1456              		.loc 1 625 4 view .LVU452
 625:Middlewares/Third_Party/FreeRTOS/Source/event_groups.c **** 			{
 1457              		.loc 1 625 19 is_stmt 0 view .LVU453
 1458 0032 237F     		ldrb	r3, [r4, #28]	@ zero_extendqisi2
 625:Middlewares/Third_Party/FreeRTOS/Source/event_groups.c **** 			{
 1459              		.loc 1 625 6 view .LVU454
 1460 0034 13B1     		cbz	r3, .L98
 1461              	.L94:
 631:Middlewares/Third_Party/FreeRTOS/Source/event_groups.c **** 			}
 1462              		.loc 1 631 29 is_stmt 1 view .LVU455
 636:Middlewares/Third_Party/FreeRTOS/Source/event_groups.c **** }
 1463              		.loc 1 636 2 view .LVU456
 636:Middlewares/Third_Party/FreeRTOS/Source/event_groups.c **** }
 1464              		.loc 1 636 11 is_stmt 0 view .LVU457
 1465 0036 FFF7FEFF 		bl	xTaskResumeAll
 1466              	.LVL124:
 637:Middlewares/Third_Party/FreeRTOS/Source/event_groups.c **** /*-----------------------------------------------------------*/
 1467              		.loc 1 637 1 view .LVU458
 1468 003a 10BD     		pop	{r4, pc}
 1469              	.LVL125:
 1470              	.L98:
 627:Middlewares/Third_Party/FreeRTOS/Source/event_groups.c **** 			}
 1471              		.loc 1 627 5 is_stmt 1 view .LVU459
 1472 003c 2046     		mov	r0, r4
 1473 003e FFF7FEFF 		bl	vPortFree
 1474              	.LVL126:
 1475 0042 F8E7     		b	.L94
 1476              		.cfi_endproc
 1477              	.LFE12:
ARM GAS  /var/folders/bp/hbn4m0qx5z54srgsq53w67zh0000gr/T//ccFnrHoI.s 			page 50


 1479              		.section	.text.xEventGroupSetBitsFromISR,"ax",%progbits
 1480              		.align	1
 1481              		.global	xEventGroupSetBitsFromISR
 1482              		.syntax unified
 1483              		.thumb
 1484              		.thumb_func
 1485              		.fpu fpv4-sp-d16
 1487              	xEventGroupSetBitsFromISR:
 1488              	.LVL127:
 1489              	.LFB16:
 689:Middlewares/Third_Party/FreeRTOS/Source/event_groups.c **** /*-----------------------------------------------------------*/
 690:Middlewares/Third_Party/FreeRTOS/Source/event_groups.c **** 
 691:Middlewares/Third_Party/FreeRTOS/Source/event_groups.c **** #if ( ( configUSE_TRACE_FACILITY == 1 ) && ( INCLUDE_xTimerPendFunctionCall == 1 ) && ( configUSE_T
 692:Middlewares/Third_Party/FreeRTOS/Source/event_groups.c **** 
 693:Middlewares/Third_Party/FreeRTOS/Source/event_groups.c **** 	BaseType_t xEventGroupSetBitsFromISR( EventGroupHandle_t xEventGroup, const EventBits_t uxBitsToSe
 694:Middlewares/Third_Party/FreeRTOS/Source/event_groups.c **** 	{
 1490              		.loc 1 694 2 view -0
 1491              		.cfi_startproc
 1492              		@ args = 0, pretend = 0, frame = 0
 1493              		@ frame_needed = 0, uses_anonymous_args = 0
 1494              		.loc 1 694 2 is_stmt 0 view .LVU461
 1495 0000 08B5     		push	{r3, lr}
 1496              	.LCFI16:
 1497              		.cfi_def_cfa_offset 8
 1498              		.cfi_offset 3, -8
 1499              		.cfi_offset 14, -4
 1500 0002 1346     		mov	r3, r2
 695:Middlewares/Third_Party/FreeRTOS/Source/event_groups.c **** 	BaseType_t xReturn;
 1501              		.loc 1 695 2 is_stmt 1 view .LVU462
 696:Middlewares/Third_Party/FreeRTOS/Source/event_groups.c **** 
 697:Middlewares/Third_Party/FreeRTOS/Source/event_groups.c **** 		traceEVENT_GROUP_SET_BITS_FROM_ISR( xEventGroup, uxBitsToSet );
 1502              		.loc 1 697 65 view .LVU463
 698:Middlewares/Third_Party/FreeRTOS/Source/event_groups.c **** 		xReturn = xTimerPendFunctionCallFromISR( vEventGroupSetBitsCallback, ( void * ) xEventGroup, ( ui
 1503              		.loc 1 698 3 view .LVU464
 1504              		.loc 1 698 13 is_stmt 0 view .LVU465
 1505 0004 0A46     		mov	r2, r1
 1506              	.LVL128:
 1507              		.loc 1 698 13 view .LVU466
 1508 0006 0146     		mov	r1, r0
 1509              	.LVL129:
 1510              		.loc 1 698 13 view .LVU467
 1511 0008 0148     		ldr	r0, .L101
 1512              	.LVL130:
 1513              		.loc 1 698 13 view .LVU468
 1514 000a FFF7FEFF 		bl	xTimerPendFunctionCallFromISR
 1515              	.LVL131:
 699:Middlewares/Third_Party/FreeRTOS/Source/event_groups.c **** 
 700:Middlewares/Third_Party/FreeRTOS/Source/event_groups.c **** 		return xReturn;
 1516              		.loc 1 700 3 is_stmt 1 view .LVU469
 701:Middlewares/Third_Party/FreeRTOS/Source/event_groups.c **** 	}
 1517              		.loc 1 701 2 is_stmt 0 view .LVU470
 1518 000e 08BD     		pop	{r3, pc}
 1519              	.L102:
 1520              		.align	2
 1521              	.L101:
 1522 0010 00000000 		.word	vEventGroupSetBitsCallback
 1523              		.cfi_endproc
ARM GAS  /var/folders/bp/hbn4m0qx5z54srgsq53w67zh0000gr/T//ccFnrHoI.s 			page 51


 1524              	.LFE16:
 1526              		.section	.text.uxEventGroupGetNumber,"ax",%progbits
 1527              		.align	1
 1528              		.global	uxEventGroupGetNumber
 1529              		.syntax unified
 1530              		.thumb
 1531              		.thumb_func
 1532              		.fpu fpv4-sp-d16
 1534              	uxEventGroupGetNumber:
 1535              	.LVL132:
 1536              	.LFB17:
 702:Middlewares/Third_Party/FreeRTOS/Source/event_groups.c **** 
 703:Middlewares/Third_Party/FreeRTOS/Source/event_groups.c **** #endif
 704:Middlewares/Third_Party/FreeRTOS/Source/event_groups.c **** /*-----------------------------------------------------------*/
 705:Middlewares/Third_Party/FreeRTOS/Source/event_groups.c **** 
 706:Middlewares/Third_Party/FreeRTOS/Source/event_groups.c **** #if (configUSE_TRACE_FACILITY == 1)
 707:Middlewares/Third_Party/FreeRTOS/Source/event_groups.c **** 
 708:Middlewares/Third_Party/FreeRTOS/Source/event_groups.c **** 	UBaseType_t uxEventGroupGetNumber( void* xEventGroup )
 709:Middlewares/Third_Party/FreeRTOS/Source/event_groups.c **** 	{
 1537              		.loc 1 709 2 is_stmt 1 view -0
 1538              		.cfi_startproc
 1539              		@ args = 0, pretend = 0, frame = 0
 1540              		@ frame_needed = 0, uses_anonymous_args = 0
 1541              		@ link register save eliminated.
 710:Middlewares/Third_Party/FreeRTOS/Source/event_groups.c **** 	UBaseType_t xReturn;
 1542              		.loc 1 710 2 view .LVU472
 711:Middlewares/Third_Party/FreeRTOS/Source/event_groups.c **** 	EventGroup_t *pxEventBits = ( EventGroup_t * ) xEventGroup;
 1543              		.loc 1 711 2 view .LVU473
 712:Middlewares/Third_Party/FreeRTOS/Source/event_groups.c **** 
 713:Middlewares/Third_Party/FreeRTOS/Source/event_groups.c **** 		if( xEventGroup == NULL )
 1544              		.loc 1 713 3 view .LVU474
 1545              		.loc 1 713 5 is_stmt 0 view .LVU475
 1546 0000 08B1     		cbz	r0, .L105
 714:Middlewares/Third_Party/FreeRTOS/Source/event_groups.c **** 		{
 715:Middlewares/Third_Party/FreeRTOS/Source/event_groups.c **** 			xReturn = 0;
 716:Middlewares/Third_Party/FreeRTOS/Source/event_groups.c **** 		}
 717:Middlewares/Third_Party/FreeRTOS/Source/event_groups.c **** 		else
 718:Middlewares/Third_Party/FreeRTOS/Source/event_groups.c **** 		{
 719:Middlewares/Third_Party/FreeRTOS/Source/event_groups.c **** 			xReturn = pxEventBits->uxEventGroupNumber;
 1547              		.loc 1 719 4 is_stmt 1 view .LVU476
 1548              		.loc 1 719 12 is_stmt 0 view .LVU477
 1549 0002 8069     		ldr	r0, [r0, #24]
 1550              	.LVL133:
 1551              		.loc 1 719 12 view .LVU478
 1552 0004 7047     		bx	lr
 1553              	.LVL134:
 1554              	.L105:
 715:Middlewares/Third_Party/FreeRTOS/Source/event_groups.c **** 		}
 1555              		.loc 1 715 12 view .LVU479
 1556 0006 0020     		movs	r0, #0
 1557              	.LVL135:
 720:Middlewares/Third_Party/FreeRTOS/Source/event_groups.c **** 		}
 721:Middlewares/Third_Party/FreeRTOS/Source/event_groups.c **** 
 722:Middlewares/Third_Party/FreeRTOS/Source/event_groups.c **** 		return xReturn;
 1558              		.loc 1 722 3 is_stmt 1 view .LVU480
 723:Middlewares/Third_Party/FreeRTOS/Source/event_groups.c **** 	}
 1559              		.loc 1 723 2 is_stmt 0 view .LVU481
ARM GAS  /var/folders/bp/hbn4m0qx5z54srgsq53w67zh0000gr/T//ccFnrHoI.s 			page 52


 1560 0008 7047     		bx	lr
 1561              		.cfi_endproc
 1562              	.LFE17:
 1564              		.section	.text.vEventGroupSetNumber,"ax",%progbits
 1565              		.align	1
 1566              		.global	vEventGroupSetNumber
 1567              		.syntax unified
 1568              		.thumb
 1569              		.thumb_func
 1570              		.fpu fpv4-sp-d16
 1572              	vEventGroupSetNumber:
 1573              	.LVL136:
 1574              	.LFB18:
 724:Middlewares/Third_Party/FreeRTOS/Source/event_groups.c **** 
 725:Middlewares/Third_Party/FreeRTOS/Source/event_groups.c **** #endif /* configUSE_TRACE_FACILITY */
 726:Middlewares/Third_Party/FreeRTOS/Source/event_groups.c **** /*-----------------------------------------------------------*/
 727:Middlewares/Third_Party/FreeRTOS/Source/event_groups.c **** 
 728:Middlewares/Third_Party/FreeRTOS/Source/event_groups.c **** #if ( configUSE_TRACE_FACILITY == 1 )
 729:Middlewares/Third_Party/FreeRTOS/Source/event_groups.c **** 
 730:Middlewares/Third_Party/FreeRTOS/Source/event_groups.c **** 	void vEventGroupSetNumber( void * xEventGroup, UBaseType_t uxEventGroupNumber )
 731:Middlewares/Third_Party/FreeRTOS/Source/event_groups.c **** 	{
 1575              		.loc 1 731 2 is_stmt 1 view -0
 1576              		.cfi_startproc
 1577              		@ args = 0, pretend = 0, frame = 0
 1578              		@ frame_needed = 0, uses_anonymous_args = 0
 1579              		@ link register save eliminated.
 732:Middlewares/Third_Party/FreeRTOS/Source/event_groups.c **** 		( ( EventGroup_t * ) xEventGroup )->uxEventGroupNumber = uxEventGroupNumber;
 1580              		.loc 1 732 3 view .LVU483
 1581              		.loc 1 732 58 is_stmt 0 view .LVU484
 1582 0000 8161     		str	r1, [r0, #24]
 733:Middlewares/Third_Party/FreeRTOS/Source/event_groups.c **** 	}
 1583              		.loc 1 733 2 view .LVU485
 1584 0002 7047     		bx	lr
 1585              		.cfi_endproc
 1586              	.LFE18:
 1588              		.text
 1589              	.Letext0:
 1590              		.file 3 "/opt/homebrew/Cellar/arm-none-eabi-gcc/10.3-2021.07/gcc/lib/gcc/arm-none-eabi/10.3.1/incl
 1591              		.file 4 "/opt/homebrew/Cellar/arm-none-eabi-gcc/10.3-2021.07/gcc/arm-none-eabi/include/machine/_de
 1592              		.file 5 "/opt/homebrew/Cellar/arm-none-eabi-gcc/10.3-2021.07/gcc/arm-none-eabi/include/sys/_stdint
 1593              		.file 6 "Middlewares/Third_Party/FreeRTOS/Source/include/FreeRTOS.h"
 1594              		.file 7 "Middlewares/Third_Party/FreeRTOS/Source/include/list.h"
 1595              		.file 8 "Middlewares/Third_Party/FreeRTOS/Source/include/event_groups.h"
 1596              		.file 9 "Middlewares/Third_Party/FreeRTOS/Source/include/timers.h"
 1597              		.file 10 "Middlewares/Third_Party/FreeRTOS/Source/include/task.h"
 1598              		.file 11 "Middlewares/Third_Party/FreeRTOS/Source/include/portable.h"
ARM GAS  /var/folders/bp/hbn4m0qx5z54srgsq53w67zh0000gr/T//ccFnrHoI.s 			page 53

