ARM GAS  /var/folders/bp/hbn4m0qx5z54srgsq53w67zh0000gr/T//cckjtWMu.s 			page 1


   1              		.cpu cortex-m4
   2              		.eabi_attribute 27, 1
   3              		.eabi_attribute 28, 1
   4              		.eabi_attribute 20, 1
   5              		.eabi_attribute 21, 1
   6              		.eabi_attribute 23, 3
   7              		.eabi_attribute 24, 1
   8              		.eabi_attribute 25, 1
   9              		.eabi_attribute 26, 1
  10              		.eabi_attribute 30, 1
  11              		.eabi_attribute 34, 1
  12              		.eabi_attribute 18, 4
  13              		.file	"stm32f3xx_hal_exti.c"
  14              		.text
  15              	.Ltext0:
  16              		.cfi_sections	.debug_frame
  17              		.section	.text.HAL_EXTI_SetConfigLine,"ax",%progbits
  18              		.align	1
  19              		.global	HAL_EXTI_SetConfigLine
  20              		.arch armv7e-m
  21              		.syntax unified
  22              		.thumb
  23              		.thumb_func
  24              		.fpu fpv4-sp-d16
  26              	HAL_EXTI_SetConfigLine:
  27              	.LVL0:
  28              	.LFB123:
  29              		.file 1 "Drivers/STM32F3xx_HAL_Driver/Src/stm32f3xx_hal_exti.c"
   1:Drivers/STM32F3xx_HAL_Driver/Src/stm32f3xx_hal_exti.c **** /**
   2:Drivers/STM32F3xx_HAL_Driver/Src/stm32f3xx_hal_exti.c ****   ******************************************************************************
   3:Drivers/STM32F3xx_HAL_Driver/Src/stm32f3xx_hal_exti.c ****   * @file    stm32f3xx_hal_exti.c
   4:Drivers/STM32F3xx_HAL_Driver/Src/stm32f3xx_hal_exti.c ****   * @author  MCD Application Team
   5:Drivers/STM32F3xx_HAL_Driver/Src/stm32f3xx_hal_exti.c ****   * @brief   EXTI HAL module driver.
   6:Drivers/STM32F3xx_HAL_Driver/Src/stm32f3xx_hal_exti.c ****   *          This file provides firmware functions to manage the following
   7:Drivers/STM32F3xx_HAL_Driver/Src/stm32f3xx_hal_exti.c ****   *          functionalities of the Extended Interrupts and events controller (EXTI) peripheral:
   8:Drivers/STM32F3xx_HAL_Driver/Src/stm32f3xx_hal_exti.c ****   *           + Initialization and de-initialization functions
   9:Drivers/STM32F3xx_HAL_Driver/Src/stm32f3xx_hal_exti.c ****   *           + IO operation functions
  10:Drivers/STM32F3xx_HAL_Driver/Src/stm32f3xx_hal_exti.c ****   *
  11:Drivers/STM32F3xx_HAL_Driver/Src/stm32f3xx_hal_exti.c ****   @verbatim
  12:Drivers/STM32F3xx_HAL_Driver/Src/stm32f3xx_hal_exti.c ****   ==============================================================================
  13:Drivers/STM32F3xx_HAL_Driver/Src/stm32f3xx_hal_exti.c ****                     ##### EXTI Peripheral features #####
  14:Drivers/STM32F3xx_HAL_Driver/Src/stm32f3xx_hal_exti.c ****   ==============================================================================
  15:Drivers/STM32F3xx_HAL_Driver/Src/stm32f3xx_hal_exti.c ****   [..]
  16:Drivers/STM32F3xx_HAL_Driver/Src/stm32f3xx_hal_exti.c ****     (+) Each Exti line can be configured within this driver.
  17:Drivers/STM32F3xx_HAL_Driver/Src/stm32f3xx_hal_exti.c **** 
  18:Drivers/STM32F3xx_HAL_Driver/Src/stm32f3xx_hal_exti.c ****     (+) Exti line can be configured in 3 different modes
  19:Drivers/STM32F3xx_HAL_Driver/Src/stm32f3xx_hal_exti.c ****         (++) Interrupt
  20:Drivers/STM32F3xx_HAL_Driver/Src/stm32f3xx_hal_exti.c ****         (++) Event
  21:Drivers/STM32F3xx_HAL_Driver/Src/stm32f3xx_hal_exti.c ****         (++) Both of them
  22:Drivers/STM32F3xx_HAL_Driver/Src/stm32f3xx_hal_exti.c **** 
  23:Drivers/STM32F3xx_HAL_Driver/Src/stm32f3xx_hal_exti.c ****     (+) Configurable Exti lines can be configured with 3 different triggers
  24:Drivers/STM32F3xx_HAL_Driver/Src/stm32f3xx_hal_exti.c ****         (++) Rising
  25:Drivers/STM32F3xx_HAL_Driver/Src/stm32f3xx_hal_exti.c ****         (++) Falling
  26:Drivers/STM32F3xx_HAL_Driver/Src/stm32f3xx_hal_exti.c ****         (++) Both of them
  27:Drivers/STM32F3xx_HAL_Driver/Src/stm32f3xx_hal_exti.c **** 
  28:Drivers/STM32F3xx_HAL_Driver/Src/stm32f3xx_hal_exti.c ****     (+) When set in interrupt mode, configurable Exti lines have two different
  29:Drivers/STM32F3xx_HAL_Driver/Src/stm32f3xx_hal_exti.c ****         interrupts pending registers which allow to distinguish which transition
ARM GAS  /var/folders/bp/hbn4m0qx5z54srgsq53w67zh0000gr/T//cckjtWMu.s 			page 2


  30:Drivers/STM32F3xx_HAL_Driver/Src/stm32f3xx_hal_exti.c ****         occurs:
  31:Drivers/STM32F3xx_HAL_Driver/Src/stm32f3xx_hal_exti.c ****         (++) Rising edge pending interrupt
  32:Drivers/STM32F3xx_HAL_Driver/Src/stm32f3xx_hal_exti.c ****         (++) Falling
  33:Drivers/STM32F3xx_HAL_Driver/Src/stm32f3xx_hal_exti.c **** 
  34:Drivers/STM32F3xx_HAL_Driver/Src/stm32f3xx_hal_exti.c ****     (+) Exti lines 0 to 15 are linked to gpio pin number 0 to 15. Gpio port can
  35:Drivers/STM32F3xx_HAL_Driver/Src/stm32f3xx_hal_exti.c ****         be selected through multiplexer.
  36:Drivers/STM32F3xx_HAL_Driver/Src/stm32f3xx_hal_exti.c **** 
  37:Drivers/STM32F3xx_HAL_Driver/Src/stm32f3xx_hal_exti.c ****                      ##### How to use this driver #####
  38:Drivers/STM32F3xx_HAL_Driver/Src/stm32f3xx_hal_exti.c ****   ==============================================================================
  39:Drivers/STM32F3xx_HAL_Driver/Src/stm32f3xx_hal_exti.c ****   [..]
  40:Drivers/STM32F3xx_HAL_Driver/Src/stm32f3xx_hal_exti.c **** 
  41:Drivers/STM32F3xx_HAL_Driver/Src/stm32f3xx_hal_exti.c ****     (#) Configure the EXTI line using HAL_EXTI_SetConfigLine().
  42:Drivers/STM32F3xx_HAL_Driver/Src/stm32f3xx_hal_exti.c ****         (++) Choose the interrupt line number by setting "Line" member from
  43:Drivers/STM32F3xx_HAL_Driver/Src/stm32f3xx_hal_exti.c ****              EXTI_ConfigTypeDef structure.
  44:Drivers/STM32F3xx_HAL_Driver/Src/stm32f3xx_hal_exti.c ****         (++) Configure the interrupt and/or event mode using "Mode" member from
  45:Drivers/STM32F3xx_HAL_Driver/Src/stm32f3xx_hal_exti.c ****              EXTI_ConfigTypeDef structure.
  46:Drivers/STM32F3xx_HAL_Driver/Src/stm32f3xx_hal_exti.c ****         (++) For configurable lines, configure rising and/or falling trigger
  47:Drivers/STM32F3xx_HAL_Driver/Src/stm32f3xx_hal_exti.c ****              "Trigger" member from EXTI_ConfigTypeDef structure.
  48:Drivers/STM32F3xx_HAL_Driver/Src/stm32f3xx_hal_exti.c ****         (++) For Exti lines linked to gpio, choose gpio port using "GPIOSel"
  49:Drivers/STM32F3xx_HAL_Driver/Src/stm32f3xx_hal_exti.c ****              member from GPIO_InitTypeDef structure.
  50:Drivers/STM32F3xx_HAL_Driver/Src/stm32f3xx_hal_exti.c **** 
  51:Drivers/STM32F3xx_HAL_Driver/Src/stm32f3xx_hal_exti.c ****     (#) Get current Exti configuration of a dedicated line using
  52:Drivers/STM32F3xx_HAL_Driver/Src/stm32f3xx_hal_exti.c ****         HAL_EXTI_GetConfigLine().
  53:Drivers/STM32F3xx_HAL_Driver/Src/stm32f3xx_hal_exti.c ****         (++) Provide exiting handle as parameter.
  54:Drivers/STM32F3xx_HAL_Driver/Src/stm32f3xx_hal_exti.c ****         (++) Provide pointer on EXTI_ConfigTypeDef structure as second parameter.
  55:Drivers/STM32F3xx_HAL_Driver/Src/stm32f3xx_hal_exti.c **** 
  56:Drivers/STM32F3xx_HAL_Driver/Src/stm32f3xx_hal_exti.c ****     (#) Clear Exti configuration of a dedicated line using HAL_EXTI_GetConfigLine().
  57:Drivers/STM32F3xx_HAL_Driver/Src/stm32f3xx_hal_exti.c ****         (++) Provide exiting handle as parameter.
  58:Drivers/STM32F3xx_HAL_Driver/Src/stm32f3xx_hal_exti.c **** 
  59:Drivers/STM32F3xx_HAL_Driver/Src/stm32f3xx_hal_exti.c ****     (#) Register callback to treat Exti interrupts using HAL_EXTI_RegisterCallback().
  60:Drivers/STM32F3xx_HAL_Driver/Src/stm32f3xx_hal_exti.c ****         (++) Provide exiting handle as first parameter.
  61:Drivers/STM32F3xx_HAL_Driver/Src/stm32f3xx_hal_exti.c ****         (++) Provide which callback will be registered using one value from
  62:Drivers/STM32F3xx_HAL_Driver/Src/stm32f3xx_hal_exti.c ****              EXTI_CallbackIDTypeDef.
  63:Drivers/STM32F3xx_HAL_Driver/Src/stm32f3xx_hal_exti.c ****         (++) Provide callback function pointer.
  64:Drivers/STM32F3xx_HAL_Driver/Src/stm32f3xx_hal_exti.c **** 
  65:Drivers/STM32F3xx_HAL_Driver/Src/stm32f3xx_hal_exti.c ****     (#) Get interrupt pending bit using HAL_EXTI_GetPending().
  66:Drivers/STM32F3xx_HAL_Driver/Src/stm32f3xx_hal_exti.c **** 
  67:Drivers/STM32F3xx_HAL_Driver/Src/stm32f3xx_hal_exti.c ****     (#) Clear interrupt pending bit using HAL_EXTI_GetPending().
  68:Drivers/STM32F3xx_HAL_Driver/Src/stm32f3xx_hal_exti.c **** 
  69:Drivers/STM32F3xx_HAL_Driver/Src/stm32f3xx_hal_exti.c ****     (#) Generate software interrupt using HAL_EXTI_GenerateSWI().
  70:Drivers/STM32F3xx_HAL_Driver/Src/stm32f3xx_hal_exti.c **** 
  71:Drivers/STM32F3xx_HAL_Driver/Src/stm32f3xx_hal_exti.c ****   @endverbatim
  72:Drivers/STM32F3xx_HAL_Driver/Src/stm32f3xx_hal_exti.c ****   ******************************************************************************
  73:Drivers/STM32F3xx_HAL_Driver/Src/stm32f3xx_hal_exti.c ****   * @attention
  74:Drivers/STM32F3xx_HAL_Driver/Src/stm32f3xx_hal_exti.c ****   *
  75:Drivers/STM32F3xx_HAL_Driver/Src/stm32f3xx_hal_exti.c ****   * <h2><center>&copy; Copyright (c) 2019 STMicroelectronics.
  76:Drivers/STM32F3xx_HAL_Driver/Src/stm32f3xx_hal_exti.c ****   * All rights reserved.</center></h2>
  77:Drivers/STM32F3xx_HAL_Driver/Src/stm32f3xx_hal_exti.c ****   *
  78:Drivers/STM32F3xx_HAL_Driver/Src/stm32f3xx_hal_exti.c ****   * This software component is licensed by ST under BSD 3-Clause license,
  79:Drivers/STM32F3xx_HAL_Driver/Src/stm32f3xx_hal_exti.c ****   * the "License"; You may not use this file except in compliance with the
  80:Drivers/STM32F3xx_HAL_Driver/Src/stm32f3xx_hal_exti.c ****   * License. You may obtain a copy of the License at:
  81:Drivers/STM32F3xx_HAL_Driver/Src/stm32f3xx_hal_exti.c ****   *                        opensource.org/licenses/BSD-3-Clause
  82:Drivers/STM32F3xx_HAL_Driver/Src/stm32f3xx_hal_exti.c ****   *
  83:Drivers/STM32F3xx_HAL_Driver/Src/stm32f3xx_hal_exti.c ****   ******************************************************************************
  84:Drivers/STM32F3xx_HAL_Driver/Src/stm32f3xx_hal_exti.c ****   */
  85:Drivers/STM32F3xx_HAL_Driver/Src/stm32f3xx_hal_exti.c **** 
  86:Drivers/STM32F3xx_HAL_Driver/Src/stm32f3xx_hal_exti.c **** /* Includes ------------------------------------------------------------------*/
ARM GAS  /var/folders/bp/hbn4m0qx5z54srgsq53w67zh0000gr/T//cckjtWMu.s 			page 3


  87:Drivers/STM32F3xx_HAL_Driver/Src/stm32f3xx_hal_exti.c **** #include "stm32f3xx_hal.h"
  88:Drivers/STM32F3xx_HAL_Driver/Src/stm32f3xx_hal_exti.c **** 
  89:Drivers/STM32F3xx_HAL_Driver/Src/stm32f3xx_hal_exti.c **** /** @addtogroup STM32F3xx_HAL_Driver
  90:Drivers/STM32F3xx_HAL_Driver/Src/stm32f3xx_hal_exti.c ****   * @{
  91:Drivers/STM32F3xx_HAL_Driver/Src/stm32f3xx_hal_exti.c ****   */
  92:Drivers/STM32F3xx_HAL_Driver/Src/stm32f3xx_hal_exti.c **** 
  93:Drivers/STM32F3xx_HAL_Driver/Src/stm32f3xx_hal_exti.c **** /** @addtogroup EXTI
  94:Drivers/STM32F3xx_HAL_Driver/Src/stm32f3xx_hal_exti.c ****   * @{
  95:Drivers/STM32F3xx_HAL_Driver/Src/stm32f3xx_hal_exti.c ****   */
  96:Drivers/STM32F3xx_HAL_Driver/Src/stm32f3xx_hal_exti.c **** /** MISRA C:2012 deviation rule has been granted for following rule:
  97:Drivers/STM32F3xx_HAL_Driver/Src/stm32f3xx_hal_exti.c ****   * Rule-18.1_b - Medium: Array `EXTICR' 1st subscript interval [0,7] may be out
  98:Drivers/STM32F3xx_HAL_Driver/Src/stm32f3xx_hal_exti.c ****   * of bounds [0,3] in following API :
  99:Drivers/STM32F3xx_HAL_Driver/Src/stm32f3xx_hal_exti.c ****   * HAL_EXTI_SetConfigLine
 100:Drivers/STM32F3xx_HAL_Driver/Src/stm32f3xx_hal_exti.c ****   * HAL_EXTI_GetConfigLine
 101:Drivers/STM32F3xx_HAL_Driver/Src/stm32f3xx_hal_exti.c ****   * HAL_EXTI_ClearConfigLine
 102:Drivers/STM32F3xx_HAL_Driver/Src/stm32f3xx_hal_exti.c ****   */
 103:Drivers/STM32F3xx_HAL_Driver/Src/stm32f3xx_hal_exti.c **** 
 104:Drivers/STM32F3xx_HAL_Driver/Src/stm32f3xx_hal_exti.c **** #ifdef HAL_EXTI_MODULE_ENABLED
 105:Drivers/STM32F3xx_HAL_Driver/Src/stm32f3xx_hal_exti.c **** 
 106:Drivers/STM32F3xx_HAL_Driver/Src/stm32f3xx_hal_exti.c **** /* Private typedef -----------------------------------------------------------*/
 107:Drivers/STM32F3xx_HAL_Driver/Src/stm32f3xx_hal_exti.c **** /* Private defines -----------------------------------------------------------*/
 108:Drivers/STM32F3xx_HAL_Driver/Src/stm32f3xx_hal_exti.c **** /** @defgroup EXTI_Private_Constants EXTI Private Constants
 109:Drivers/STM32F3xx_HAL_Driver/Src/stm32f3xx_hal_exti.c ****   * @{
 110:Drivers/STM32F3xx_HAL_Driver/Src/stm32f3xx_hal_exti.c ****   */
 111:Drivers/STM32F3xx_HAL_Driver/Src/stm32f3xx_hal_exti.c **** #define EXTI_MODE_OFFSET                    0x08u   /* 0x20: offset between CPU IMR/EMR registers *
 112:Drivers/STM32F3xx_HAL_Driver/Src/stm32f3xx_hal_exti.c **** #define EXTI_CONFIG_OFFSET                  0x08u   /* 0x20: offset between CPU Rising/Falling conf
 113:Drivers/STM32F3xx_HAL_Driver/Src/stm32f3xx_hal_exti.c **** /**
 114:Drivers/STM32F3xx_HAL_Driver/Src/stm32f3xx_hal_exti.c ****   * @}
 115:Drivers/STM32F3xx_HAL_Driver/Src/stm32f3xx_hal_exti.c ****   */
 116:Drivers/STM32F3xx_HAL_Driver/Src/stm32f3xx_hal_exti.c **** 
 117:Drivers/STM32F3xx_HAL_Driver/Src/stm32f3xx_hal_exti.c **** /* Private macros ------------------------------------------------------------*/
 118:Drivers/STM32F3xx_HAL_Driver/Src/stm32f3xx_hal_exti.c **** /* Private variables ---------------------------------------------------------*/
 119:Drivers/STM32F3xx_HAL_Driver/Src/stm32f3xx_hal_exti.c **** /* Private function prototypes -----------------------------------------------*/
 120:Drivers/STM32F3xx_HAL_Driver/Src/stm32f3xx_hal_exti.c **** /* Exported functions --------------------------------------------------------*/
 121:Drivers/STM32F3xx_HAL_Driver/Src/stm32f3xx_hal_exti.c **** 
 122:Drivers/STM32F3xx_HAL_Driver/Src/stm32f3xx_hal_exti.c **** /** @addtogroup EXTI_Exported_Functions
 123:Drivers/STM32F3xx_HAL_Driver/Src/stm32f3xx_hal_exti.c ****   * @{
 124:Drivers/STM32F3xx_HAL_Driver/Src/stm32f3xx_hal_exti.c ****   */
 125:Drivers/STM32F3xx_HAL_Driver/Src/stm32f3xx_hal_exti.c **** 
 126:Drivers/STM32F3xx_HAL_Driver/Src/stm32f3xx_hal_exti.c **** /** @addtogroup EXTI_Exported_Functions_Group1
 127:Drivers/STM32F3xx_HAL_Driver/Src/stm32f3xx_hal_exti.c ****   * @brief    Configuration functions
 128:Drivers/STM32F3xx_HAL_Driver/Src/stm32f3xx_hal_exti.c ****   *
 129:Drivers/STM32F3xx_HAL_Driver/Src/stm32f3xx_hal_exti.c **** @verbatim
 130:Drivers/STM32F3xx_HAL_Driver/Src/stm32f3xx_hal_exti.c ****  ===============================================================================
 131:Drivers/STM32F3xx_HAL_Driver/Src/stm32f3xx_hal_exti.c ****               ##### Configuration functions #####
 132:Drivers/STM32F3xx_HAL_Driver/Src/stm32f3xx_hal_exti.c ****  ===============================================================================
 133:Drivers/STM32F3xx_HAL_Driver/Src/stm32f3xx_hal_exti.c **** 
 134:Drivers/STM32F3xx_HAL_Driver/Src/stm32f3xx_hal_exti.c **** @endverbatim
 135:Drivers/STM32F3xx_HAL_Driver/Src/stm32f3xx_hal_exti.c ****   * @{
 136:Drivers/STM32F3xx_HAL_Driver/Src/stm32f3xx_hal_exti.c ****   */
 137:Drivers/STM32F3xx_HAL_Driver/Src/stm32f3xx_hal_exti.c **** 
 138:Drivers/STM32F3xx_HAL_Driver/Src/stm32f3xx_hal_exti.c **** /**
 139:Drivers/STM32F3xx_HAL_Driver/Src/stm32f3xx_hal_exti.c ****   * @brief  Set configuration of a dedicated Exti line.
 140:Drivers/STM32F3xx_HAL_Driver/Src/stm32f3xx_hal_exti.c ****   * @param  hexti Exti handle.
 141:Drivers/STM32F3xx_HAL_Driver/Src/stm32f3xx_hal_exti.c ****   * @param  pExtiConfig Pointer on EXTI configuration to be set.
 142:Drivers/STM32F3xx_HAL_Driver/Src/stm32f3xx_hal_exti.c ****   * @retval HAL Status.
 143:Drivers/STM32F3xx_HAL_Driver/Src/stm32f3xx_hal_exti.c ****   */
ARM GAS  /var/folders/bp/hbn4m0qx5z54srgsq53w67zh0000gr/T//cckjtWMu.s 			page 4


 144:Drivers/STM32F3xx_HAL_Driver/Src/stm32f3xx_hal_exti.c **** HAL_StatusTypeDef HAL_EXTI_SetConfigLine(EXTI_HandleTypeDef *hexti, EXTI_ConfigTypeDef *pExtiConfig
 145:Drivers/STM32F3xx_HAL_Driver/Src/stm32f3xx_hal_exti.c **** {
  30              		.loc 1 145 1 view -0
  31              		.cfi_startproc
  32              		@ args = 0, pretend = 0, frame = 0
  33              		@ frame_needed = 0, uses_anonymous_args = 0
  34              		@ link register save eliminated.
 146:Drivers/STM32F3xx_HAL_Driver/Src/stm32f3xx_hal_exti.c ****   __IO uint32_t *regaddr;
  35              		.loc 1 146 3 view .LVU1
 147:Drivers/STM32F3xx_HAL_Driver/Src/stm32f3xx_hal_exti.c ****   uint32_t regval;
  36              		.loc 1 147 3 view .LVU2
 148:Drivers/STM32F3xx_HAL_Driver/Src/stm32f3xx_hal_exti.c ****   uint32_t linepos;
  37              		.loc 1 148 3 view .LVU3
 149:Drivers/STM32F3xx_HAL_Driver/Src/stm32f3xx_hal_exti.c ****   uint32_t maskline;
  38              		.loc 1 149 3 view .LVU4
 150:Drivers/STM32F3xx_HAL_Driver/Src/stm32f3xx_hal_exti.c ****   uint32_t offset;
  39              		.loc 1 150 3 view .LVU5
 151:Drivers/STM32F3xx_HAL_Driver/Src/stm32f3xx_hal_exti.c **** 
 152:Drivers/STM32F3xx_HAL_Driver/Src/stm32f3xx_hal_exti.c ****   /* Check null pointer */
 153:Drivers/STM32F3xx_HAL_Driver/Src/stm32f3xx_hal_exti.c ****   if ((hexti == NULL) || (pExtiConfig == NULL))
  40              		.loc 1 153 3 view .LVU6
  41              		.loc 1 153 6 is_stmt 0 view .LVU7
  42 0000 0028     		cmp	r0, #0
  43 0002 5FD0     		beq	.L12
  44              		.loc 1 153 23 discriminator 1 view .LVU8
  45 0004 0029     		cmp	r1, #0
  46 0006 5FD0     		beq	.L13
 145:Drivers/STM32F3xx_HAL_Driver/Src/stm32f3xx_hal_exti.c ****   __IO uint32_t *regaddr;
  47              		.loc 1 145 1 view .LVU9
  48 0008 F0B4     		push	{r4, r5, r6, r7}
  49              	.LCFI0:
  50              		.cfi_def_cfa_offset 16
  51              		.cfi_offset 4, -16
  52              		.cfi_offset 5, -12
  53              		.cfi_offset 6, -8
  54              		.cfi_offset 7, -4
 154:Drivers/STM32F3xx_HAL_Driver/Src/stm32f3xx_hal_exti.c ****   {
 155:Drivers/STM32F3xx_HAL_Driver/Src/stm32f3xx_hal_exti.c ****     return HAL_ERROR;
 156:Drivers/STM32F3xx_HAL_Driver/Src/stm32f3xx_hal_exti.c ****   }
 157:Drivers/STM32F3xx_HAL_Driver/Src/stm32f3xx_hal_exti.c **** 
 158:Drivers/STM32F3xx_HAL_Driver/Src/stm32f3xx_hal_exti.c ****   /* Check parameters */
 159:Drivers/STM32F3xx_HAL_Driver/Src/stm32f3xx_hal_exti.c ****   assert_param(IS_EXTI_LINE(pExtiConfig->Line));
  55              		.loc 1 159 3 is_stmt 1 view .LVU10
 160:Drivers/STM32F3xx_HAL_Driver/Src/stm32f3xx_hal_exti.c ****   assert_param(IS_EXTI_MODE(pExtiConfig->Mode));
  56              		.loc 1 160 3 view .LVU11
 161:Drivers/STM32F3xx_HAL_Driver/Src/stm32f3xx_hal_exti.c **** 
 162:Drivers/STM32F3xx_HAL_Driver/Src/stm32f3xx_hal_exti.c ****   /* Assign line number to handle */
 163:Drivers/STM32F3xx_HAL_Driver/Src/stm32f3xx_hal_exti.c ****   hexti->Line = pExtiConfig->Line;
  57              		.loc 1 163 3 view .LVU12
  58              		.loc 1 163 28 is_stmt 0 view .LVU13
  59 000a 0A68     		ldr	r2, [r1]
  60              		.loc 1 163 15 view .LVU14
  61 000c 0260     		str	r2, [r0]
 164:Drivers/STM32F3xx_HAL_Driver/Src/stm32f3xx_hal_exti.c **** 
 165:Drivers/STM32F3xx_HAL_Driver/Src/stm32f3xx_hal_exti.c ****   /* Compute line register offset and line mask */
 166:Drivers/STM32F3xx_HAL_Driver/Src/stm32f3xx_hal_exti.c ****   offset = ((pExtiConfig->Line & EXTI_REG_MASK) >> EXTI_REG_SHIFT);
  62              		.loc 1 166 3 is_stmt 1 view .LVU15
ARM GAS  /var/folders/bp/hbn4m0qx5z54srgsq53w67zh0000gr/T//cckjtWMu.s 			page 5


  63              		.loc 1 166 10 is_stmt 0 view .LVU16
  64 000e C2F30043 		ubfx	r3, r2, #16, #1
  65              	.LVL1:
 167:Drivers/STM32F3xx_HAL_Driver/Src/stm32f3xx_hal_exti.c ****   linepos = (pExtiConfig->Line & EXTI_PIN_MASK);
  66              		.loc 1 167 3 is_stmt 1 view .LVU17
  67              		.loc 1 167 11 is_stmt 0 view .LVU18
  68 0012 02F01F04 		and	r4, r2, #31
  69              	.LVL2:
 168:Drivers/STM32F3xx_HAL_Driver/Src/stm32f3xx_hal_exti.c ****   maskline = (1uL << linepos);
  70              		.loc 1 168 3 is_stmt 1 view .LVU19
  71              		.loc 1 168 12 is_stmt 0 view .LVU20
  72 0016 0120     		movs	r0, #1
  73              	.LVL3:
  74              		.loc 1 168 12 view .LVU21
  75 0018 A040     		lsls	r0, r0, r4
  76              	.LVL4:
 169:Drivers/STM32F3xx_HAL_Driver/Src/stm32f3xx_hal_exti.c **** 
 170:Drivers/STM32F3xx_HAL_Driver/Src/stm32f3xx_hal_exti.c ****   /* Configure triggers for configurable lines */
 171:Drivers/STM32F3xx_HAL_Driver/Src/stm32f3xx_hal_exti.c ****   if ((pExtiConfig->Line & EXTI_CONFIG) != 0x00u)
  77              		.loc 1 171 3 is_stmt 1 view .LVU22
  78              		.loc 1 171 6 is_stmt 0 view .LVU23
  79 001a 12F0007F 		tst	r2, #33554432
  80 001e 1BD0     		beq	.L3
 172:Drivers/STM32F3xx_HAL_Driver/Src/stm32f3xx_hal_exti.c ****   {
 173:Drivers/STM32F3xx_HAL_Driver/Src/stm32f3xx_hal_exti.c ****     assert_param(IS_EXTI_TRIGGER(pExtiConfig->Trigger));
  81              		.loc 1 173 5 is_stmt 1 view .LVU24
 174:Drivers/STM32F3xx_HAL_Driver/Src/stm32f3xx_hal_exti.c **** 
 175:Drivers/STM32F3xx_HAL_Driver/Src/stm32f3xx_hal_exti.c ****     /* Configure rising trigger */
 176:Drivers/STM32F3xx_HAL_Driver/Src/stm32f3xx_hal_exti.c ****     regaddr = (&EXTI->RTSR + (EXTI_CONFIG_OFFSET * offset));
  82              		.loc 1 176 5 view .LVU25
  83              		.loc 1 176 28 is_stmt 0 view .LVU26
  84 0020 4FEA431C 		lsl	ip, r3, #5
  85              		.loc 1 176 13 view .LVU27
  86 0024 294F     		ldr	r7, .L19
  87              	.LVL5:
 177:Drivers/STM32F3xx_HAL_Driver/Src/stm32f3xx_hal_exti.c ****     regval = *regaddr;
  88              		.loc 1 177 5 is_stmt 1 view .LVU28
  89              		.loc 1 177 12 is_stmt 0 view .LVU29
  90 0026 5CF80750 		ldr	r5, [ip, r7]
  91              	.LVL6:
 178:Drivers/STM32F3xx_HAL_Driver/Src/stm32f3xx_hal_exti.c **** 
 179:Drivers/STM32F3xx_HAL_Driver/Src/stm32f3xx_hal_exti.c ****     /* Mask or set line */
 180:Drivers/STM32F3xx_HAL_Driver/Src/stm32f3xx_hal_exti.c ****     if ((pExtiConfig->Trigger & EXTI_TRIGGER_RISING) != 0x00u)
  92              		.loc 1 180 5 is_stmt 1 view .LVU30
  93              		.loc 1 180 21 is_stmt 0 view .LVU31
  94 002a 8E68     		ldr	r6, [r1, #8]
  95              		.loc 1 180 8 view .LVU32
  96 002c 16F0010F 		tst	r6, #1
  97 0030 29D0     		beq	.L4
 181:Drivers/STM32F3xx_HAL_Driver/Src/stm32f3xx_hal_exti.c ****     {
 182:Drivers/STM32F3xx_HAL_Driver/Src/stm32f3xx_hal_exti.c ****       regval |= maskline;
  98              		.loc 1 182 7 is_stmt 1 view .LVU33
  99              		.loc 1 182 14 is_stmt 0 view .LVU34
 100 0032 0543     		orrs	r5, r5, r0
 101              	.LVL7:
 102              	.L5:
 183:Drivers/STM32F3xx_HAL_Driver/Src/stm32f3xx_hal_exti.c ****     }
ARM GAS  /var/folders/bp/hbn4m0qx5z54srgsq53w67zh0000gr/T//cckjtWMu.s 			page 6


 184:Drivers/STM32F3xx_HAL_Driver/Src/stm32f3xx_hal_exti.c ****     else
 185:Drivers/STM32F3xx_HAL_Driver/Src/stm32f3xx_hal_exti.c ****     {
 186:Drivers/STM32F3xx_HAL_Driver/Src/stm32f3xx_hal_exti.c ****       regval &= ~maskline;
 187:Drivers/STM32F3xx_HAL_Driver/Src/stm32f3xx_hal_exti.c ****     }
 188:Drivers/STM32F3xx_HAL_Driver/Src/stm32f3xx_hal_exti.c **** 
 189:Drivers/STM32F3xx_HAL_Driver/Src/stm32f3xx_hal_exti.c ****     /* Store rising trigger mode */
 190:Drivers/STM32F3xx_HAL_Driver/Src/stm32f3xx_hal_exti.c ****     *regaddr = regval;
 103              		.loc 1 190 5 is_stmt 1 view .LVU35
 104              		.loc 1 190 14 is_stmt 0 view .LVU36
 105 0034 4CF80750 		str	r5, [ip, r7]
 191:Drivers/STM32F3xx_HAL_Driver/Src/stm32f3xx_hal_exti.c **** 
 192:Drivers/STM32F3xx_HAL_Driver/Src/stm32f3xx_hal_exti.c ****     /* Configure falling trigger */
 193:Drivers/STM32F3xx_HAL_Driver/Src/stm32f3xx_hal_exti.c ****     regaddr = (&EXTI->FTSR + (EXTI_CONFIG_OFFSET * offset));
 106              		.loc 1 193 5 is_stmt 1 view .LVU37
 107              		.loc 1 193 13 is_stmt 0 view .LVU38
 108 0038 254E     		ldr	r6, .L19+4
 109              	.LVL8:
 194:Drivers/STM32F3xx_HAL_Driver/Src/stm32f3xx_hal_exti.c ****     regval = *regaddr;
 110              		.loc 1 194 5 is_stmt 1 view .LVU39
 111              		.loc 1 194 12 is_stmt 0 view .LVU40
 112 003a 5CF80650 		ldr	r5, [ip, r6]
 113              	.LVL9:
 195:Drivers/STM32F3xx_HAL_Driver/Src/stm32f3xx_hal_exti.c **** 
 196:Drivers/STM32F3xx_HAL_Driver/Src/stm32f3xx_hal_exti.c ****     /* Mask or set line */
 197:Drivers/STM32F3xx_HAL_Driver/Src/stm32f3xx_hal_exti.c ****     if ((pExtiConfig->Trigger & EXTI_TRIGGER_FALLING) != 0x00u)
 114              		.loc 1 197 5 is_stmt 1 view .LVU41
 115              		.loc 1 197 8 is_stmt 0 view .LVU42
 116 003e 8F68     		ldr	r7, [r1, #8]
 117 0040 17F0020F 		tst	r7, #2
 118 0044 22D0     		beq	.L6
 198:Drivers/STM32F3xx_HAL_Driver/Src/stm32f3xx_hal_exti.c ****     {
 199:Drivers/STM32F3xx_HAL_Driver/Src/stm32f3xx_hal_exti.c ****       regval |= maskline;
 119              		.loc 1 199 7 is_stmt 1 view .LVU43
 120              		.loc 1 199 14 is_stmt 0 view .LVU44
 121 0046 0543     		orrs	r5, r5, r0
 122              	.LVL10:
 123              	.L7:
 200:Drivers/STM32F3xx_HAL_Driver/Src/stm32f3xx_hal_exti.c ****     }
 201:Drivers/STM32F3xx_HAL_Driver/Src/stm32f3xx_hal_exti.c ****     else
 202:Drivers/STM32F3xx_HAL_Driver/Src/stm32f3xx_hal_exti.c ****     {
 203:Drivers/STM32F3xx_HAL_Driver/Src/stm32f3xx_hal_exti.c ****       regval &= ~maskline;
 204:Drivers/STM32F3xx_HAL_Driver/Src/stm32f3xx_hal_exti.c ****     }
 205:Drivers/STM32F3xx_HAL_Driver/Src/stm32f3xx_hal_exti.c **** 
 206:Drivers/STM32F3xx_HAL_Driver/Src/stm32f3xx_hal_exti.c ****     /* Store falling trigger mode */
 207:Drivers/STM32F3xx_HAL_Driver/Src/stm32f3xx_hal_exti.c ****     *regaddr = regval;
 124              		.loc 1 207 5 is_stmt 1 view .LVU45
 125              		.loc 1 207 14 is_stmt 0 view .LVU46
 126 0048 4CF80650 		str	r5, [ip, r6]
 208:Drivers/STM32F3xx_HAL_Driver/Src/stm32f3xx_hal_exti.c **** 
 209:Drivers/STM32F3xx_HAL_Driver/Src/stm32f3xx_hal_exti.c ****     /* Configure gpio port selection in case of gpio exti line */
 210:Drivers/STM32F3xx_HAL_Driver/Src/stm32f3xx_hal_exti.c ****     if ((pExtiConfig->Line & EXTI_GPIO) == EXTI_GPIO)
 127              		.loc 1 210 5 is_stmt 1 view .LVU47
 128              		.loc 1 210 28 is_stmt 0 view .LVU48
 129 004c 0D68     		ldr	r5, [r1]
 130              	.LVL11:
 131              		.loc 1 210 28 view .LVU49
 132 004e 05F0C06C 		and	ip, r5, #100663296
ARM GAS  /var/folders/bp/hbn4m0qx5z54srgsq53w67zh0000gr/T//cckjtWMu.s 			page 7


 133              	.LVL12:
 134              		.loc 1 210 8 view .LVU50
 135 0052 BCF1C06F 		cmp	ip, #100663296
 136 0056 1CD0     		beq	.L18
 137              	.LVL13:
 138              	.L3:
 211:Drivers/STM32F3xx_HAL_Driver/Src/stm32f3xx_hal_exti.c ****     {
 212:Drivers/STM32F3xx_HAL_Driver/Src/stm32f3xx_hal_exti.c ****       assert_param(IS_EXTI_GPIO_PORT(pExtiConfig->GPIOSel));
 213:Drivers/STM32F3xx_HAL_Driver/Src/stm32f3xx_hal_exti.c ****       assert_param(IS_EXTI_GPIO_PIN(linepos));
 214:Drivers/STM32F3xx_HAL_Driver/Src/stm32f3xx_hal_exti.c **** 
 215:Drivers/STM32F3xx_HAL_Driver/Src/stm32f3xx_hal_exti.c ****       regval = SYSCFG->EXTICR[linepos >> 2u];
 216:Drivers/STM32F3xx_HAL_Driver/Src/stm32f3xx_hal_exti.c ****       regval &= ~(SYSCFG_EXTICR1_EXTI0 << (SYSCFG_EXTICR1_EXTI1_Pos * (linepos & 0x03u)));
 217:Drivers/STM32F3xx_HAL_Driver/Src/stm32f3xx_hal_exti.c ****       regval |= (pExtiConfig->GPIOSel << (SYSCFG_EXTICR1_EXTI1_Pos * (linepos & 0x03u)));
 218:Drivers/STM32F3xx_HAL_Driver/Src/stm32f3xx_hal_exti.c ****       SYSCFG->EXTICR[linepos >> 2u] = regval;
 219:Drivers/STM32F3xx_HAL_Driver/Src/stm32f3xx_hal_exti.c ****     }
 220:Drivers/STM32F3xx_HAL_Driver/Src/stm32f3xx_hal_exti.c ****   }
 221:Drivers/STM32F3xx_HAL_Driver/Src/stm32f3xx_hal_exti.c **** 
 222:Drivers/STM32F3xx_HAL_Driver/Src/stm32f3xx_hal_exti.c ****   /* Configure interrupt mode : read current mode */
 223:Drivers/STM32F3xx_HAL_Driver/Src/stm32f3xx_hal_exti.c ****   regaddr = (&EXTI->IMR + (EXTI_MODE_OFFSET * offset));
 139              		.loc 1 223 3 is_stmt 1 view .LVU51
 140              		.loc 1 223 25 is_stmt 0 view .LVU52
 141 0058 5B01     		lsls	r3, r3, #5
 142              	.LVL14:
 143              		.loc 1 223 11 view .LVU53
 144 005a 03F18042 		add	r2, r3, #1073741824
 145 005e 02F58232 		add	r2, r2, #66560
 146              	.LVL15:
 224:Drivers/STM32F3xx_HAL_Driver/Src/stm32f3xx_hal_exti.c ****   regval = *regaddr;
 147              		.loc 1 224 3 is_stmt 1 view .LVU54
 148              		.loc 1 224 10 is_stmt 0 view .LVU55
 149 0062 1468     		ldr	r4, [r2]
 150              	.LVL16:
 225:Drivers/STM32F3xx_HAL_Driver/Src/stm32f3xx_hal_exti.c **** 
 226:Drivers/STM32F3xx_HAL_Driver/Src/stm32f3xx_hal_exti.c ****   /* Mask or set line */
 227:Drivers/STM32F3xx_HAL_Driver/Src/stm32f3xx_hal_exti.c ****   if ((pExtiConfig->Mode & EXTI_MODE_INTERRUPT) != 0x00u)
 151              		.loc 1 227 3 is_stmt 1 view .LVU56
 152              		.loc 1 227 6 is_stmt 0 view .LVU57
 153 0064 4D68     		ldr	r5, [r1, #4]
 154 0066 15F0010F 		tst	r5, #1
 155 006a 25D0     		beq	.L8
 228:Drivers/STM32F3xx_HAL_Driver/Src/stm32f3xx_hal_exti.c ****   {
 229:Drivers/STM32F3xx_HAL_Driver/Src/stm32f3xx_hal_exti.c ****     regval |= maskline;
 156              		.loc 1 229 5 is_stmt 1 view .LVU58
 157              		.loc 1 229 12 is_stmt 0 view .LVU59
 158 006c 0443     		orrs	r4, r4, r0
 159              	.LVL17:
 160              	.L9:
 230:Drivers/STM32F3xx_HAL_Driver/Src/stm32f3xx_hal_exti.c ****   }
 231:Drivers/STM32F3xx_HAL_Driver/Src/stm32f3xx_hal_exti.c ****   else
 232:Drivers/STM32F3xx_HAL_Driver/Src/stm32f3xx_hal_exti.c ****   {
 233:Drivers/STM32F3xx_HAL_Driver/Src/stm32f3xx_hal_exti.c ****     regval &= ~maskline;
 234:Drivers/STM32F3xx_HAL_Driver/Src/stm32f3xx_hal_exti.c ****   }
 235:Drivers/STM32F3xx_HAL_Driver/Src/stm32f3xx_hal_exti.c **** 
 236:Drivers/STM32F3xx_HAL_Driver/Src/stm32f3xx_hal_exti.c ****   /* Store interrupt mode */
 237:Drivers/STM32F3xx_HAL_Driver/Src/stm32f3xx_hal_exti.c ****   *regaddr = regval;
 161              		.loc 1 237 3 is_stmt 1 view .LVU60
 162              		.loc 1 237 12 is_stmt 0 view .LVU61
ARM GAS  /var/folders/bp/hbn4m0qx5z54srgsq53w67zh0000gr/T//cckjtWMu.s 			page 8


 163 006e 1460     		str	r4, [r2]
 238:Drivers/STM32F3xx_HAL_Driver/Src/stm32f3xx_hal_exti.c **** 
 239:Drivers/STM32F3xx_HAL_Driver/Src/stm32f3xx_hal_exti.c ****   /* Configure event mode : read current mode */
 240:Drivers/STM32F3xx_HAL_Driver/Src/stm32f3xx_hal_exti.c ****   regaddr = (&EXTI->EMR + (EXTI_MODE_OFFSET * offset));
 164              		.loc 1 240 3 is_stmt 1 view .LVU62
 165              		.loc 1 240 11 is_stmt 0 view .LVU63
 166 0070 184C     		ldr	r4, .L19+8
 167              	.LVL18:
 241:Drivers/STM32F3xx_HAL_Driver/Src/stm32f3xx_hal_exti.c ****   regval = *regaddr;
 168              		.loc 1 241 3 is_stmt 1 view .LVU64
 169              		.loc 1 241 10 is_stmt 0 view .LVU65
 170 0072 1A59     		ldr	r2, [r3, r4]
 171              	.LVL19:
 242:Drivers/STM32F3xx_HAL_Driver/Src/stm32f3xx_hal_exti.c **** 
 243:Drivers/STM32F3xx_HAL_Driver/Src/stm32f3xx_hal_exti.c ****   /* Mask or set line */
 244:Drivers/STM32F3xx_HAL_Driver/Src/stm32f3xx_hal_exti.c ****   if ((pExtiConfig->Mode & EXTI_MODE_EVENT) != 0x00u)
 172              		.loc 1 244 3 is_stmt 1 view .LVU66
 173              		.loc 1 244 19 is_stmt 0 view .LVU67
 174 0074 4968     		ldr	r1, [r1, #4]
 175              	.LVL20:
 176              		.loc 1 244 6 view .LVU68
 177 0076 11F0020F 		tst	r1, #2
 178 007a 20D0     		beq	.L10
 245:Drivers/STM32F3xx_HAL_Driver/Src/stm32f3xx_hal_exti.c ****   {
 246:Drivers/STM32F3xx_HAL_Driver/Src/stm32f3xx_hal_exti.c ****     regval |= maskline;
 179              		.loc 1 246 5 is_stmt 1 view .LVU69
 180              		.loc 1 246 12 is_stmt 0 view .LVU70
 181 007c 1043     		orrs	r0, r0, r2
 182              	.LVL21:
 183              	.L11:
 247:Drivers/STM32F3xx_HAL_Driver/Src/stm32f3xx_hal_exti.c ****   }
 248:Drivers/STM32F3xx_HAL_Driver/Src/stm32f3xx_hal_exti.c ****   else
 249:Drivers/STM32F3xx_HAL_Driver/Src/stm32f3xx_hal_exti.c ****   {
 250:Drivers/STM32F3xx_HAL_Driver/Src/stm32f3xx_hal_exti.c ****     regval &= ~maskline;
 251:Drivers/STM32F3xx_HAL_Driver/Src/stm32f3xx_hal_exti.c ****   }
 252:Drivers/STM32F3xx_HAL_Driver/Src/stm32f3xx_hal_exti.c **** 
 253:Drivers/STM32F3xx_HAL_Driver/Src/stm32f3xx_hal_exti.c ****   /* Store event mode */
 254:Drivers/STM32F3xx_HAL_Driver/Src/stm32f3xx_hal_exti.c ****   *regaddr = regval;
 184              		.loc 1 254 3 is_stmt 1 view .LVU71
 185              		.loc 1 254 12 is_stmt 0 view .LVU72
 186 007e 1851     		str	r0, [r3, r4]
 255:Drivers/STM32F3xx_HAL_Driver/Src/stm32f3xx_hal_exti.c **** 
 256:Drivers/STM32F3xx_HAL_Driver/Src/stm32f3xx_hal_exti.c ****   return HAL_OK;
 187              		.loc 1 256 3 is_stmt 1 view .LVU73
 188              		.loc 1 256 10 is_stmt 0 view .LVU74
 189 0080 0020     		movs	r0, #0
 190              	.LVL22:
 257:Drivers/STM32F3xx_HAL_Driver/Src/stm32f3xx_hal_exti.c **** }
 191              		.loc 1 257 1 view .LVU75
 192 0082 F0BC     		pop	{r4, r5, r6, r7}
 193              	.LCFI1:
 194              		.cfi_remember_state
 195              		.cfi_restore 7
 196              		.cfi_restore 6
 197              		.cfi_restore 5
 198              		.cfi_restore 4
 199              		.cfi_def_cfa_offset 0
ARM GAS  /var/folders/bp/hbn4m0qx5z54srgsq53w67zh0000gr/T//cckjtWMu.s 			page 9


 200              	.LVL23:
 201              		.loc 1 257 1 view .LVU76
 202 0084 7047     		bx	lr
 203              	.LVL24:
 204              	.L4:
 205              	.LCFI2:
 206              		.cfi_restore_state
 186:Drivers/STM32F3xx_HAL_Driver/Src/stm32f3xx_hal_exti.c ****     }
 207              		.loc 1 186 7 is_stmt 1 view .LVU77
 186:Drivers/STM32F3xx_HAL_Driver/Src/stm32f3xx_hal_exti.c ****     }
 208              		.loc 1 186 14 is_stmt 0 view .LVU78
 209 0086 25EA0005 		bic	r5, r5, r0
 210              	.LVL25:
 186:Drivers/STM32F3xx_HAL_Driver/Src/stm32f3xx_hal_exti.c ****     }
 211              		.loc 1 186 14 view .LVU79
 212 008a D3E7     		b	.L5
 213              	.LVL26:
 214              	.L6:
 203:Drivers/STM32F3xx_HAL_Driver/Src/stm32f3xx_hal_exti.c ****     }
 215              		.loc 1 203 7 is_stmt 1 view .LVU80
 203:Drivers/STM32F3xx_HAL_Driver/Src/stm32f3xx_hal_exti.c ****     }
 216              		.loc 1 203 14 is_stmt 0 view .LVU81
 217 008c 25EA0005 		bic	r5, r5, r0
 218              	.LVL27:
 203:Drivers/STM32F3xx_HAL_Driver/Src/stm32f3xx_hal_exti.c ****     }
 219              		.loc 1 203 14 view .LVU82
 220 0090 DAE7     		b	.L7
 221              	.LVL28:
 222              	.L18:
 212:Drivers/STM32F3xx_HAL_Driver/Src/stm32f3xx_hal_exti.c ****       assert_param(IS_EXTI_GPIO_PIN(linepos));
 223              		.loc 1 212 7 is_stmt 1 view .LVU83
 213:Drivers/STM32F3xx_HAL_Driver/Src/stm32f3xx_hal_exti.c **** 
 224              		.loc 1 213 7 view .LVU84
 215:Drivers/STM32F3xx_HAL_Driver/Src/stm32f3xx_hal_exti.c ****       regval &= ~(SYSCFG_EXTICR1_EXTI0 << (SYSCFG_EXTICR1_EXTI1_Pos * (linepos & 0x03u)));
 225              		.loc 1 215 7 view .LVU85
 215:Drivers/STM32F3xx_HAL_Driver/Src/stm32f3xx_hal_exti.c ****       regval &= ~(SYSCFG_EXTICR1_EXTI0 << (SYSCFG_EXTICR1_EXTI1_Pos * (linepos & 0x03u)));
 226              		.loc 1 215 39 is_stmt 0 view .LVU86
 227 0092 A408     		lsrs	r4, r4, #2
 228              	.LVL29:
 215:Drivers/STM32F3xx_HAL_Driver/Src/stm32f3xx_hal_exti.c ****       regval &= ~(SYSCFG_EXTICR1_EXTI0 << (SYSCFG_EXTICR1_EXTI1_Pos * (linepos & 0x03u)));
 229              		.loc 1 215 14 view .LVU87
 230 0094 104F     		ldr	r7, .L19+12
 231 0096 0234     		adds	r4, r4, #2
 232 0098 57F82460 		ldr	r6, [r7, r4, lsl #2]
 233              	.LVL30:
 216:Drivers/STM32F3xx_HAL_Driver/Src/stm32f3xx_hal_exti.c ****       regval |= (pExtiConfig->GPIOSel << (SYSCFG_EXTICR1_EXTI1_Pos * (linepos & 0x03u)));
 234              		.loc 1 216 7 is_stmt 1 view .LVU88
 216:Drivers/STM32F3xx_HAL_Driver/Src/stm32f3xx_hal_exti.c ****       regval |= (pExtiConfig->GPIOSel << (SYSCFG_EXTICR1_EXTI1_Pos * (linepos & 0x03u)));
 235              		.loc 1 216 80 is_stmt 0 view .LVU89
 236 009c 02F00302 		and	r2, r2, #3
 237              	.LVL31:
 216:Drivers/STM32F3xx_HAL_Driver/Src/stm32f3xx_hal_exti.c ****       regval |= (pExtiConfig->GPIOSel << (SYSCFG_EXTICR1_EXTI1_Pos * (linepos & 0x03u)));
 238              		.loc 1 216 69 view .LVU90
 239 00a0 9200     		lsls	r2, r2, #2
 216:Drivers/STM32F3xx_HAL_Driver/Src/stm32f3xx_hal_exti.c ****       regval |= (pExtiConfig->GPIOSel << (SYSCFG_EXTICR1_EXTI1_Pos * (linepos & 0x03u)));
 240              		.loc 1 216 40 view .LVU91
 241 00a2 0F25     		movs	r5, #15
ARM GAS  /var/folders/bp/hbn4m0qx5z54srgsq53w67zh0000gr/T//cckjtWMu.s 			page 10


 242 00a4 9540     		lsls	r5, r5, r2
 216:Drivers/STM32F3xx_HAL_Driver/Src/stm32f3xx_hal_exti.c ****       regval |= (pExtiConfig->GPIOSel << (SYSCFG_EXTICR1_EXTI1_Pos * (linepos & 0x03u)));
 243              		.loc 1 216 14 view .LVU92
 244 00a6 26EA0506 		bic	r6, r6, r5
 245              	.LVL32:
 217:Drivers/STM32F3xx_HAL_Driver/Src/stm32f3xx_hal_exti.c ****       SYSCFG->EXTICR[linepos >> 2u] = regval;
 246              		.loc 1 217 7 is_stmt 1 view .LVU93
 217:Drivers/STM32F3xx_HAL_Driver/Src/stm32f3xx_hal_exti.c ****       SYSCFG->EXTICR[linepos >> 2u] = regval;
 247              		.loc 1 217 29 is_stmt 0 view .LVU94
 248 00aa CD68     		ldr	r5, [r1, #12]
 217:Drivers/STM32F3xx_HAL_Driver/Src/stm32f3xx_hal_exti.c ****       SYSCFG->EXTICR[linepos >> 2u] = regval;
 249              		.loc 1 217 39 view .LVU95
 250 00ac 05FA02F2 		lsl	r2, r5, r2
 217:Drivers/STM32F3xx_HAL_Driver/Src/stm32f3xx_hal_exti.c ****       SYSCFG->EXTICR[linepos >> 2u] = regval;
 251              		.loc 1 217 14 view .LVU96
 252 00b0 3243     		orrs	r2, r2, r6
 253              	.LVL33:
 218:Drivers/STM32F3xx_HAL_Driver/Src/stm32f3xx_hal_exti.c ****     }
 254              		.loc 1 218 7 is_stmt 1 view .LVU97
 218:Drivers/STM32F3xx_HAL_Driver/Src/stm32f3xx_hal_exti.c ****     }
 255              		.loc 1 218 37 is_stmt 0 view .LVU98
 256 00b2 47F82420 		str	r2, [r7, r4, lsl #2]
 257 00b6 CFE7     		b	.L3
 258              	.LVL34:
 259              	.L8:
 233:Drivers/STM32F3xx_HAL_Driver/Src/stm32f3xx_hal_exti.c ****   }
 260              		.loc 1 233 5 is_stmt 1 view .LVU99
 233:Drivers/STM32F3xx_HAL_Driver/Src/stm32f3xx_hal_exti.c ****   }
 261              		.loc 1 233 12 is_stmt 0 view .LVU100
 262 00b8 24EA0004 		bic	r4, r4, r0
 263              	.LVL35:
 233:Drivers/STM32F3xx_HAL_Driver/Src/stm32f3xx_hal_exti.c ****   }
 264              		.loc 1 233 12 view .LVU101
 265 00bc D7E7     		b	.L9
 266              	.LVL36:
 267              	.L10:
 250:Drivers/STM32F3xx_HAL_Driver/Src/stm32f3xx_hal_exti.c ****   }
 268              		.loc 1 250 5 is_stmt 1 view .LVU102
 250:Drivers/STM32F3xx_HAL_Driver/Src/stm32f3xx_hal_exti.c ****   }
 269              		.loc 1 250 12 is_stmt 0 view .LVU103
 270 00be 22EA0000 		bic	r0, r2, r0
 271              	.LVL37:
 250:Drivers/STM32F3xx_HAL_Driver/Src/stm32f3xx_hal_exti.c ****   }
 272              		.loc 1 250 12 view .LVU104
 273 00c2 DCE7     		b	.L11
 274              	.LVL38:
 275              	.L12:
 276              	.LCFI3:
 277              		.cfi_def_cfa_offset 0
 278              		.cfi_restore 4
 279              		.cfi_restore 5
 280              		.cfi_restore 6
 281              		.cfi_restore 7
 155:Drivers/STM32F3xx_HAL_Driver/Src/stm32f3xx_hal_exti.c ****   }
 282              		.loc 1 155 12 view .LVU105
 283 00c4 0120     		movs	r0, #1
 284              	.LVL39:
ARM GAS  /var/folders/bp/hbn4m0qx5z54srgsq53w67zh0000gr/T//cckjtWMu.s 			page 11


 155:Drivers/STM32F3xx_HAL_Driver/Src/stm32f3xx_hal_exti.c ****   }
 285              		.loc 1 155 12 view .LVU106
 286 00c6 7047     		bx	lr
 287              	.LVL40:
 288              	.L13:
 155:Drivers/STM32F3xx_HAL_Driver/Src/stm32f3xx_hal_exti.c ****   }
 289              		.loc 1 155 12 view .LVU107
 290 00c8 0120     		movs	r0, #1
 291              	.LVL41:
 292              		.loc 1 257 1 view .LVU108
 293 00ca 7047     		bx	lr
 294              	.L20:
 295              		.align	2
 296              	.L19:
 297 00cc 08040140 		.word	1073808392
 298 00d0 0C040140 		.word	1073808396
 299 00d4 04040140 		.word	1073808388
 300 00d8 00000140 		.word	1073807360
 301              		.cfi_endproc
 302              	.LFE123:
 304              		.section	.text.HAL_EXTI_GetConfigLine,"ax",%progbits
 305              		.align	1
 306              		.global	HAL_EXTI_GetConfigLine
 307              		.syntax unified
 308              		.thumb
 309              		.thumb_func
 310              		.fpu fpv4-sp-d16
 312              	HAL_EXTI_GetConfigLine:
 313              	.LVL42:
 314              	.LFB124:
 258:Drivers/STM32F3xx_HAL_Driver/Src/stm32f3xx_hal_exti.c **** 
 259:Drivers/STM32F3xx_HAL_Driver/Src/stm32f3xx_hal_exti.c **** /**
 260:Drivers/STM32F3xx_HAL_Driver/Src/stm32f3xx_hal_exti.c ****   * @brief  Get configuration of a dedicated Exti line.
 261:Drivers/STM32F3xx_HAL_Driver/Src/stm32f3xx_hal_exti.c ****   * @param  hexti Exti handle.
 262:Drivers/STM32F3xx_HAL_Driver/Src/stm32f3xx_hal_exti.c ****   * @param  pExtiConfig Pointer on structure to store Exti configuration.
 263:Drivers/STM32F3xx_HAL_Driver/Src/stm32f3xx_hal_exti.c ****   * @retval HAL Status.
 264:Drivers/STM32F3xx_HAL_Driver/Src/stm32f3xx_hal_exti.c ****   */
 265:Drivers/STM32F3xx_HAL_Driver/Src/stm32f3xx_hal_exti.c **** HAL_StatusTypeDef HAL_EXTI_GetConfigLine(EXTI_HandleTypeDef *hexti, EXTI_ConfigTypeDef *pExtiConfig
 266:Drivers/STM32F3xx_HAL_Driver/Src/stm32f3xx_hal_exti.c **** {
 315              		.loc 1 266 1 is_stmt 1 view -0
 316              		.cfi_startproc
 317              		@ args = 0, pretend = 0, frame = 0
 318              		@ frame_needed = 0, uses_anonymous_args = 0
 267:Drivers/STM32F3xx_HAL_Driver/Src/stm32f3xx_hal_exti.c ****   __IO uint32_t *regaddr;
 319              		.loc 1 267 3 view .LVU110
 268:Drivers/STM32F3xx_HAL_Driver/Src/stm32f3xx_hal_exti.c ****   uint32_t regval;
 320              		.loc 1 268 3 view .LVU111
 269:Drivers/STM32F3xx_HAL_Driver/Src/stm32f3xx_hal_exti.c ****   uint32_t linepos;
 321              		.loc 1 269 3 view .LVU112
 270:Drivers/STM32F3xx_HAL_Driver/Src/stm32f3xx_hal_exti.c ****   uint32_t maskline;
 322              		.loc 1 270 3 view .LVU113
 271:Drivers/STM32F3xx_HAL_Driver/Src/stm32f3xx_hal_exti.c ****   uint32_t offset;
 323              		.loc 1 271 3 view .LVU114
 272:Drivers/STM32F3xx_HAL_Driver/Src/stm32f3xx_hal_exti.c **** 
 273:Drivers/STM32F3xx_HAL_Driver/Src/stm32f3xx_hal_exti.c ****   /* Check null pointer */
 274:Drivers/STM32F3xx_HAL_Driver/Src/stm32f3xx_hal_exti.c ****   if ((hexti == NULL) || (pExtiConfig == NULL))
 324              		.loc 1 274 3 view .LVU115
ARM GAS  /var/folders/bp/hbn4m0qx5z54srgsq53w67zh0000gr/T//cckjtWMu.s 			page 12


 325              		.loc 1 274 6 is_stmt 0 view .LVU116
 326 0000 0028     		cmp	r0, #0
 327 0002 4DD0     		beq	.L28
 328              		.loc 1 274 23 discriminator 1 view .LVU117
 329 0004 0029     		cmp	r1, #0
 330 0006 4DD0     		beq	.L29
 266:Drivers/STM32F3xx_HAL_Driver/Src/stm32f3xx_hal_exti.c ****   __IO uint32_t *regaddr;
 331              		.loc 1 266 1 view .LVU118
 332 0008 10B5     		push	{r4, lr}
 333              	.LCFI4:
 334              		.cfi_def_cfa_offset 8
 335              		.cfi_offset 4, -8
 336              		.cfi_offset 14, -4
 275:Drivers/STM32F3xx_HAL_Driver/Src/stm32f3xx_hal_exti.c ****   {
 276:Drivers/STM32F3xx_HAL_Driver/Src/stm32f3xx_hal_exti.c ****     return HAL_ERROR;
 277:Drivers/STM32F3xx_HAL_Driver/Src/stm32f3xx_hal_exti.c ****   }
 278:Drivers/STM32F3xx_HAL_Driver/Src/stm32f3xx_hal_exti.c **** 
 279:Drivers/STM32F3xx_HAL_Driver/Src/stm32f3xx_hal_exti.c ****   /* Check the parameter */
 280:Drivers/STM32F3xx_HAL_Driver/Src/stm32f3xx_hal_exti.c ****   assert_param(IS_EXTI_LINE(hexti->Line));
 337              		.loc 1 280 3 is_stmt 1 view .LVU119
 281:Drivers/STM32F3xx_HAL_Driver/Src/stm32f3xx_hal_exti.c **** 
 282:Drivers/STM32F3xx_HAL_Driver/Src/stm32f3xx_hal_exti.c ****   /* Store handle line number to configuration structure */
 283:Drivers/STM32F3xx_HAL_Driver/Src/stm32f3xx_hal_exti.c ****   pExtiConfig->Line = hexti->Line;
 338              		.loc 1 283 3 view .LVU120
 339              		.loc 1 283 28 is_stmt 0 view .LVU121
 340 000a 0368     		ldr	r3, [r0]
 341              		.loc 1 283 21 view .LVU122
 342 000c 0B60     		str	r3, [r1]
 284:Drivers/STM32F3xx_HAL_Driver/Src/stm32f3xx_hal_exti.c **** 
 285:Drivers/STM32F3xx_HAL_Driver/Src/stm32f3xx_hal_exti.c ****   /* compute line register offset and line mask */
 286:Drivers/STM32F3xx_HAL_Driver/Src/stm32f3xx_hal_exti.c ****   offset = ((pExtiConfig->Line & EXTI_REG_MASK) >> EXTI_REG_SHIFT);
 343              		.loc 1 286 3 is_stmt 1 view .LVU123
 344              		.loc 1 286 10 is_stmt 0 view .LVU124
 345 000e C3F30040 		ubfx	r0, r3, #16, #1
 346              	.LVL43:
 287:Drivers/STM32F3xx_HAL_Driver/Src/stm32f3xx_hal_exti.c ****   linepos = (pExtiConfig->Line & EXTI_PIN_MASK);
 347              		.loc 1 287 3 is_stmt 1 view .LVU125
 348              		.loc 1 287 11 is_stmt 0 view .LVU126
 349 0012 03F01F0E 		and	lr, r3, #31
 350              	.LVL44:
 288:Drivers/STM32F3xx_HAL_Driver/Src/stm32f3xx_hal_exti.c ****   maskline = (1uL << linepos);
 351              		.loc 1 288 3 is_stmt 1 view .LVU127
 352              		.loc 1 288 12 is_stmt 0 view .LVU128
 353 0016 0122     		movs	r2, #1
 354 0018 02FA0EF2 		lsl	r2, r2, lr
 355              	.LVL45:
 289:Drivers/STM32F3xx_HAL_Driver/Src/stm32f3xx_hal_exti.c **** 
 290:Drivers/STM32F3xx_HAL_Driver/Src/stm32f3xx_hal_exti.c ****   /* 1] Get core mode : interrupt */
 291:Drivers/STM32F3xx_HAL_Driver/Src/stm32f3xx_hal_exti.c ****   regaddr = (&EXTI->IMR + (EXTI_MODE_OFFSET * offset));
 356              		.loc 1 291 3 is_stmt 1 view .LVU129
 357              		.loc 1 291 25 is_stmt 0 view .LVU130
 358 001c 4001     		lsls	r0, r0, #5
 359              	.LVL46:
 360              		.loc 1 291 11 view .LVU131
 361 001e 00F1804C 		add	ip, r0, #1073741824
 362 0022 0CF5823C 		add	ip, ip, #66560
 363              	.LVL47:
ARM GAS  /var/folders/bp/hbn4m0qx5z54srgsq53w67zh0000gr/T//cckjtWMu.s 			page 13


 292:Drivers/STM32F3xx_HAL_Driver/Src/stm32f3xx_hal_exti.c ****   regval = *regaddr;
 364              		.loc 1 292 3 is_stmt 1 view .LVU132
 365              		.loc 1 292 10 is_stmt 0 view .LVU133
 366 0026 DCF80040 		ldr	r4, [ip]
 367              	.LVL48:
 293:Drivers/STM32F3xx_HAL_Driver/Src/stm32f3xx_hal_exti.c **** 
 294:Drivers/STM32F3xx_HAL_Driver/Src/stm32f3xx_hal_exti.c ****   /* Check if selected line is enable */
 295:Drivers/STM32F3xx_HAL_Driver/Src/stm32f3xx_hal_exti.c ****   if ((regval & maskline) != 0x00u)
 368              		.loc 1 295 3 is_stmt 1 view .LVU134
 369              		.loc 1 295 6 is_stmt 0 view .LVU135
 370 002a 2242     		tst	r2, r4
 371 002c 24D0     		beq	.L23
 296:Drivers/STM32F3xx_HAL_Driver/Src/stm32f3xx_hal_exti.c ****   {
 297:Drivers/STM32F3xx_HAL_Driver/Src/stm32f3xx_hal_exti.c ****     pExtiConfig->Mode = EXTI_MODE_INTERRUPT;
 372              		.loc 1 297 5 is_stmt 1 view .LVU136
 373              		.loc 1 297 23 is_stmt 0 view .LVU137
 374 002e 0124     		movs	r4, #1
 375              	.LVL49:
 376              		.loc 1 297 23 view .LVU138
 377 0030 4C60     		str	r4, [r1, #4]
 378              	.L24:
 298:Drivers/STM32F3xx_HAL_Driver/Src/stm32f3xx_hal_exti.c ****   }
 299:Drivers/STM32F3xx_HAL_Driver/Src/stm32f3xx_hal_exti.c ****   else
 300:Drivers/STM32F3xx_HAL_Driver/Src/stm32f3xx_hal_exti.c ****   {
 301:Drivers/STM32F3xx_HAL_Driver/Src/stm32f3xx_hal_exti.c ****     pExtiConfig->Mode = EXTI_MODE_NONE;
 302:Drivers/STM32F3xx_HAL_Driver/Src/stm32f3xx_hal_exti.c ****   }
 303:Drivers/STM32F3xx_HAL_Driver/Src/stm32f3xx_hal_exti.c **** 
 304:Drivers/STM32F3xx_HAL_Driver/Src/stm32f3xx_hal_exti.c ****   /* Get event mode */
 305:Drivers/STM32F3xx_HAL_Driver/Src/stm32f3xx_hal_exti.c ****   regaddr = (&EXTI->EMR + (EXTI_MODE_OFFSET * offset));
 379              		.loc 1 305 3 is_stmt 1 view .LVU139
 380              		.loc 1 305 11 is_stmt 0 view .LVU140
 381 0032 1E4C     		ldr	r4, .L37
 382              	.LVL50:
 306:Drivers/STM32F3xx_HAL_Driver/Src/stm32f3xx_hal_exti.c ****   regval = *regaddr;
 383              		.loc 1 306 3 is_stmt 1 view .LVU141
 384              		.loc 1 306 10 is_stmt 0 view .LVU142
 385 0034 0459     		ldr	r4, [r0, r4]
 386              	.LVL51:
 307:Drivers/STM32F3xx_HAL_Driver/Src/stm32f3xx_hal_exti.c **** 
 308:Drivers/STM32F3xx_HAL_Driver/Src/stm32f3xx_hal_exti.c ****   /* Check if selected line is enable */
 309:Drivers/STM32F3xx_HAL_Driver/Src/stm32f3xx_hal_exti.c ****   if ((regval & maskline) != 0x00u)
 387              		.loc 1 309 3 is_stmt 1 view .LVU143
 388              		.loc 1 309 6 is_stmt 0 view .LVU144
 389 0036 2242     		tst	r2, r4
 390 0038 03D0     		beq	.L25
 310:Drivers/STM32F3xx_HAL_Driver/Src/stm32f3xx_hal_exti.c ****   {
 311:Drivers/STM32F3xx_HAL_Driver/Src/stm32f3xx_hal_exti.c ****     pExtiConfig->Mode |= EXTI_MODE_EVENT;
 391              		.loc 1 311 5 is_stmt 1 view .LVU145
 392              		.loc 1 311 23 is_stmt 0 view .LVU146
 393 003a 4C68     		ldr	r4, [r1, #4]
 394              	.LVL52:
 395              		.loc 1 311 23 view .LVU147
 396 003c 44F00204 		orr	r4, r4, #2
 397 0040 4C60     		str	r4, [r1, #4]
 398              	.L25:
 312:Drivers/STM32F3xx_HAL_Driver/Src/stm32f3xx_hal_exti.c ****   }
 313:Drivers/STM32F3xx_HAL_Driver/Src/stm32f3xx_hal_exti.c **** 
ARM GAS  /var/folders/bp/hbn4m0qx5z54srgsq53w67zh0000gr/T//cckjtWMu.s 			page 14


 314:Drivers/STM32F3xx_HAL_Driver/Src/stm32f3xx_hal_exti.c ****   /* Get default Trigger and GPIOSel configuration */
 315:Drivers/STM32F3xx_HAL_Driver/Src/stm32f3xx_hal_exti.c ****   pExtiConfig->Trigger = EXTI_TRIGGER_NONE;
 399              		.loc 1 315 3 is_stmt 1 view .LVU148
 400              		.loc 1 315 24 is_stmt 0 view .LVU149
 401 0042 0024     		movs	r4, #0
 402 0044 8C60     		str	r4, [r1, #8]
 316:Drivers/STM32F3xx_HAL_Driver/Src/stm32f3xx_hal_exti.c ****   pExtiConfig->GPIOSel = 0x00u;
 403              		.loc 1 316 3 is_stmt 1 view .LVU150
 404              		.loc 1 316 24 is_stmt 0 view .LVU151
 405 0046 CC60     		str	r4, [r1, #12]
 317:Drivers/STM32F3xx_HAL_Driver/Src/stm32f3xx_hal_exti.c **** 
 318:Drivers/STM32F3xx_HAL_Driver/Src/stm32f3xx_hal_exti.c ****   /* 2] Get trigger for configurable lines : rising */
 319:Drivers/STM32F3xx_HAL_Driver/Src/stm32f3xx_hal_exti.c ****   if ((pExtiConfig->Line & EXTI_CONFIG) != 0x00u)
 406              		.loc 1 319 3 is_stmt 1 view .LVU152
 407              		.loc 1 319 6 is_stmt 0 view .LVU153
 408 0048 13F0007F 		tst	r3, #33554432
 409 004c 2CD0     		beq	.L30
 320:Drivers/STM32F3xx_HAL_Driver/Src/stm32f3xx_hal_exti.c ****   {
 321:Drivers/STM32F3xx_HAL_Driver/Src/stm32f3xx_hal_exti.c ****     regaddr = (&EXTI->RTSR + (EXTI_CONFIG_OFFSET * offset));
 410              		.loc 1 321 5 is_stmt 1 view .LVU154
 411              		.loc 1 321 13 is_stmt 0 view .LVU155
 412 004e 184C     		ldr	r4, .L37+4
 413              	.LVL53:
 322:Drivers/STM32F3xx_HAL_Driver/Src/stm32f3xx_hal_exti.c ****     regval = *regaddr;
 414              		.loc 1 322 5 is_stmt 1 view .LVU156
 415              		.loc 1 322 12 is_stmt 0 view .LVU157
 416 0050 0459     		ldr	r4, [r0, r4]
 417              	.LVL54:
 323:Drivers/STM32F3xx_HAL_Driver/Src/stm32f3xx_hal_exti.c **** 
 324:Drivers/STM32F3xx_HAL_Driver/Src/stm32f3xx_hal_exti.c ****     /* Check if configuration of selected line is enable */
 325:Drivers/STM32F3xx_HAL_Driver/Src/stm32f3xx_hal_exti.c ****     if ((regval & maskline) != 0x00u)
 418              		.loc 1 325 5 is_stmt 1 view .LVU158
 419              		.loc 1 325 8 is_stmt 0 view .LVU159
 420 0052 2242     		tst	r2, r4
 421 0054 01D0     		beq	.L26
 326:Drivers/STM32F3xx_HAL_Driver/Src/stm32f3xx_hal_exti.c ****     {
 327:Drivers/STM32F3xx_HAL_Driver/Src/stm32f3xx_hal_exti.c ****       pExtiConfig->Trigger = EXTI_TRIGGER_RISING;
 422              		.loc 1 327 7 is_stmt 1 view .LVU160
 423              		.loc 1 327 28 is_stmt 0 view .LVU161
 424 0056 0124     		movs	r4, #1
 425              	.LVL55:
 426              		.loc 1 327 28 view .LVU162
 427 0058 8C60     		str	r4, [r1, #8]
 428              	.L26:
 328:Drivers/STM32F3xx_HAL_Driver/Src/stm32f3xx_hal_exti.c ****     }
 329:Drivers/STM32F3xx_HAL_Driver/Src/stm32f3xx_hal_exti.c **** 
 330:Drivers/STM32F3xx_HAL_Driver/Src/stm32f3xx_hal_exti.c ****     /* Get falling configuration */
 331:Drivers/STM32F3xx_HAL_Driver/Src/stm32f3xx_hal_exti.c ****     regaddr = (&EXTI->FTSR + (EXTI_CONFIG_OFFSET * offset));
 429              		.loc 1 331 5 is_stmt 1 view .LVU163
 430              		.loc 1 331 13 is_stmt 0 view .LVU164
 431 005a 164C     		ldr	r4, .L37+8
 432              	.LVL56:
 332:Drivers/STM32F3xx_HAL_Driver/Src/stm32f3xx_hal_exti.c ****     regval = *regaddr;
 433              		.loc 1 332 5 is_stmt 1 view .LVU165
 434              		.loc 1 332 12 is_stmt 0 view .LVU166
 435 005c 0059     		ldr	r0, [r0, r4]
 436              	.LVL57:
ARM GAS  /var/folders/bp/hbn4m0qx5z54srgsq53w67zh0000gr/T//cckjtWMu.s 			page 15


 333:Drivers/STM32F3xx_HAL_Driver/Src/stm32f3xx_hal_exti.c **** 
 334:Drivers/STM32F3xx_HAL_Driver/Src/stm32f3xx_hal_exti.c ****     /* Check if configuration of selected line is enable */
 335:Drivers/STM32F3xx_HAL_Driver/Src/stm32f3xx_hal_exti.c ****     if ((regval & maskline) != 0x00u)
 437              		.loc 1 335 5 is_stmt 1 view .LVU167
 438              		.loc 1 335 8 is_stmt 0 view .LVU168
 439 005e 0242     		tst	r2, r0
 440 0060 03D0     		beq	.L27
 336:Drivers/STM32F3xx_HAL_Driver/Src/stm32f3xx_hal_exti.c ****     {
 337:Drivers/STM32F3xx_HAL_Driver/Src/stm32f3xx_hal_exti.c ****       pExtiConfig->Trigger |= EXTI_TRIGGER_FALLING;
 441              		.loc 1 337 7 is_stmt 1 view .LVU169
 442              		.loc 1 337 28 is_stmt 0 view .LVU170
 443 0062 8A68     		ldr	r2, [r1, #8]
 444              	.LVL58:
 445              		.loc 1 337 28 view .LVU171
 446 0064 42F00202 		orr	r2, r2, #2
 447 0068 8A60     		str	r2, [r1, #8]
 448              	.L27:
 338:Drivers/STM32F3xx_HAL_Driver/Src/stm32f3xx_hal_exti.c ****     }
 339:Drivers/STM32F3xx_HAL_Driver/Src/stm32f3xx_hal_exti.c **** 
 340:Drivers/STM32F3xx_HAL_Driver/Src/stm32f3xx_hal_exti.c ****     /* Get Gpio port selection for gpio lines */
 341:Drivers/STM32F3xx_HAL_Driver/Src/stm32f3xx_hal_exti.c ****     if ((pExtiConfig->Line & EXTI_GPIO) == EXTI_GPIO)
 449              		.loc 1 341 5 is_stmt 1 view .LVU172
 450              		.loc 1 341 28 is_stmt 0 view .LVU173
 451 006a 03F0C063 		and	r3, r3, #100663296
 452              	.LVL59:
 453              		.loc 1 341 8 view .LVU174
 454 006e B3F1C06F 		cmp	r3, #100663296
 455 0072 04D0     		beq	.L36
 342:Drivers/STM32F3xx_HAL_Driver/Src/stm32f3xx_hal_exti.c ****     {
 343:Drivers/STM32F3xx_HAL_Driver/Src/stm32f3xx_hal_exti.c ****       assert_param(IS_EXTI_GPIO_PIN(linepos));
 344:Drivers/STM32F3xx_HAL_Driver/Src/stm32f3xx_hal_exti.c **** 
 345:Drivers/STM32F3xx_HAL_Driver/Src/stm32f3xx_hal_exti.c ****       regval = SYSCFG->EXTICR[linepos >> 2u];
 346:Drivers/STM32F3xx_HAL_Driver/Src/stm32f3xx_hal_exti.c ****       pExtiConfig->GPIOSel = ((regval << (SYSCFG_EXTICR1_EXTI1_Pos * (3uL - (linepos & 0x03u)))) >>
 347:Drivers/STM32F3xx_HAL_Driver/Src/stm32f3xx_hal_exti.c ****     }
 348:Drivers/STM32F3xx_HAL_Driver/Src/stm32f3xx_hal_exti.c ****   }
 349:Drivers/STM32F3xx_HAL_Driver/Src/stm32f3xx_hal_exti.c **** 
 350:Drivers/STM32F3xx_HAL_Driver/Src/stm32f3xx_hal_exti.c ****   return HAL_OK;
 456              		.loc 1 350 10 view .LVU175
 457 0074 0020     		movs	r0, #0
 458              	.LVL60:
 459              		.loc 1 350 10 view .LVU176
 460 0076 18E0     		b	.L22
 461              	.LVL61:
 462              	.L23:
 301:Drivers/STM32F3xx_HAL_Driver/Src/stm32f3xx_hal_exti.c ****   }
 463              		.loc 1 301 5 is_stmt 1 view .LVU177
 301:Drivers/STM32F3xx_HAL_Driver/Src/stm32f3xx_hal_exti.c ****   }
 464              		.loc 1 301 23 is_stmt 0 view .LVU178
 465 0078 0024     		movs	r4, #0
 466              	.LVL62:
 301:Drivers/STM32F3xx_HAL_Driver/Src/stm32f3xx_hal_exti.c ****   }
 467              		.loc 1 301 23 view .LVU179
 468 007a 4C60     		str	r4, [r1, #4]
 469 007c D9E7     		b	.L24
 470              	.LVL63:
 471              	.L36:
 343:Drivers/STM32F3xx_HAL_Driver/Src/stm32f3xx_hal_exti.c **** 
ARM GAS  /var/folders/bp/hbn4m0qx5z54srgsq53w67zh0000gr/T//cckjtWMu.s 			page 16


 472              		.loc 1 343 7 is_stmt 1 view .LVU180
 345:Drivers/STM32F3xx_HAL_Driver/Src/stm32f3xx_hal_exti.c ****       pExtiConfig->GPIOSel = ((regval << (SYSCFG_EXTICR1_EXTI1_Pos * (3uL - (linepos & 0x03u)))) >>
 473              		.loc 1 345 7 view .LVU181
 345:Drivers/STM32F3xx_HAL_Driver/Src/stm32f3xx_hal_exti.c ****       pExtiConfig->GPIOSel = ((regval << (SYSCFG_EXTICR1_EXTI1_Pos * (3uL - (linepos & 0x03u)))) >>
 474              		.loc 1 345 39 is_stmt 0 view .LVU182
 475 007e 4FEA9E03 		lsr	r3, lr, #2
 345:Drivers/STM32F3xx_HAL_Driver/Src/stm32f3xx_hal_exti.c ****       pExtiConfig->GPIOSel = ((regval << (SYSCFG_EXTICR1_EXTI1_Pos * (3uL - (linepos & 0x03u)))) >>
 476              		.loc 1 345 14 view .LVU183
 477 0082 0233     		adds	r3, r3, #2
 478 0084 0C4A     		ldr	r2, .L37+12
 479 0086 52F82320 		ldr	r2, [r2, r3, lsl #2]
 480              	.LVL64:
 346:Drivers/STM32F3xx_HAL_Driver/Src/stm32f3xx_hal_exti.c ****     }
 481              		.loc 1 346 7 is_stmt 1 view .LVU184
 346:Drivers/STM32F3xx_HAL_Driver/Src/stm32f3xx_hal_exti.c ****     }
 482              		.loc 1 346 75 is_stmt 0 view .LVU185
 483 008a 6FEA0E03 		mvn	r3, lr
 484 008e 03F00303 		and	r3, r3, #3
 346:Drivers/STM32F3xx_HAL_Driver/Src/stm32f3xx_hal_exti.c ****     }
 485              		.loc 1 346 68 view .LVU186
 486 0092 9B00     		lsls	r3, r3, #2
 346:Drivers/STM32F3xx_HAL_Driver/Src/stm32f3xx_hal_exti.c ****     }
 487              		.loc 1 346 39 view .LVU187
 488 0094 02FA03F3 		lsl	r3, r2, r3
 346:Drivers/STM32F3xx_HAL_Driver/Src/stm32f3xx_hal_exti.c ****     }
 489              		.loc 1 346 98 view .LVU188
 490 0098 1B0E     		lsrs	r3, r3, #24
 346:Drivers/STM32F3xx_HAL_Driver/Src/stm32f3xx_hal_exti.c ****     }
 491              		.loc 1 346 28 view .LVU189
 492 009a CB60     		str	r3, [r1, #12]
 493              		.loc 1 350 10 view .LVU190
 494 009c 0020     		movs	r0, #0
 495 009e 04E0     		b	.L22
 496              	.LVL65:
 497              	.L28:
 498              	.LCFI5:
 499              		.cfi_def_cfa_offset 0
 500              		.cfi_restore 4
 501              		.cfi_restore 14
 276:Drivers/STM32F3xx_HAL_Driver/Src/stm32f3xx_hal_exti.c ****   }
 502              		.loc 1 276 12 view .LVU191
 503 00a0 0120     		movs	r0, #1
 504              	.LVL66:
 276:Drivers/STM32F3xx_HAL_Driver/Src/stm32f3xx_hal_exti.c ****   }
 505              		.loc 1 276 12 view .LVU192
 506 00a2 7047     		bx	lr
 507              	.LVL67:
 508              	.L29:
 276:Drivers/STM32F3xx_HAL_Driver/Src/stm32f3xx_hal_exti.c ****   }
 509              		.loc 1 276 12 view .LVU193
 510 00a4 0120     		movs	r0, #1
 511              	.LVL68:
 351:Drivers/STM32F3xx_HAL_Driver/Src/stm32f3xx_hal_exti.c **** }
 512              		.loc 1 351 1 view .LVU194
 513 00a6 7047     		bx	lr
 514              	.LVL69:
 515              	.L30:
ARM GAS  /var/folders/bp/hbn4m0qx5z54srgsq53w67zh0000gr/T//cckjtWMu.s 			page 17


 516              	.LCFI6:
 517              		.cfi_def_cfa_offset 8
 518              		.cfi_offset 4, -8
 519              		.cfi_offset 14, -4
 350:Drivers/STM32F3xx_HAL_Driver/Src/stm32f3xx_hal_exti.c **** }
 520              		.loc 1 350 10 view .LVU195
 521 00a8 0020     		movs	r0, #0
 522              	.LVL70:
 523              	.L22:
 524              		.loc 1 351 1 view .LVU196
 525 00aa 10BD     		pop	{r4, pc}
 526              	.L38:
 527              		.align	2
 528              	.L37:
 529 00ac 04040140 		.word	1073808388
 530 00b0 08040140 		.word	1073808392
 531 00b4 0C040140 		.word	1073808396
 532 00b8 00000140 		.word	1073807360
 533              		.cfi_endproc
 534              	.LFE124:
 536              		.section	.text.HAL_EXTI_ClearConfigLine,"ax",%progbits
 537              		.align	1
 538              		.global	HAL_EXTI_ClearConfigLine
 539              		.syntax unified
 540              		.thumb
 541              		.thumb_func
 542              		.fpu fpv4-sp-d16
 544              	HAL_EXTI_ClearConfigLine:
 545              	.LVL71:
 546              	.LFB125:
 352:Drivers/STM32F3xx_HAL_Driver/Src/stm32f3xx_hal_exti.c **** 
 353:Drivers/STM32F3xx_HAL_Driver/Src/stm32f3xx_hal_exti.c **** /**
 354:Drivers/STM32F3xx_HAL_Driver/Src/stm32f3xx_hal_exti.c ****   * @brief  Clear whole configuration of a dedicated Exti line.
 355:Drivers/STM32F3xx_HAL_Driver/Src/stm32f3xx_hal_exti.c ****   * @param  hexti Exti handle.
 356:Drivers/STM32F3xx_HAL_Driver/Src/stm32f3xx_hal_exti.c ****   * @retval HAL Status.
 357:Drivers/STM32F3xx_HAL_Driver/Src/stm32f3xx_hal_exti.c ****   */
 358:Drivers/STM32F3xx_HAL_Driver/Src/stm32f3xx_hal_exti.c **** HAL_StatusTypeDef HAL_EXTI_ClearConfigLine(EXTI_HandleTypeDef *hexti)
 359:Drivers/STM32F3xx_HAL_Driver/Src/stm32f3xx_hal_exti.c **** {
 547              		.loc 1 359 1 is_stmt 1 view -0
 548              		.cfi_startproc
 549              		@ args = 0, pretend = 0, frame = 0
 550              		@ frame_needed = 0, uses_anonymous_args = 0
 360:Drivers/STM32F3xx_HAL_Driver/Src/stm32f3xx_hal_exti.c ****   __IO uint32_t *regaddr;
 551              		.loc 1 360 3 view .LVU198
 361:Drivers/STM32F3xx_HAL_Driver/Src/stm32f3xx_hal_exti.c ****   uint32_t regval;
 552              		.loc 1 361 3 view .LVU199
 362:Drivers/STM32F3xx_HAL_Driver/Src/stm32f3xx_hal_exti.c ****   uint32_t linepos;
 553              		.loc 1 362 3 view .LVU200
 363:Drivers/STM32F3xx_HAL_Driver/Src/stm32f3xx_hal_exti.c ****   uint32_t maskline;
 554              		.loc 1 363 3 view .LVU201
 364:Drivers/STM32F3xx_HAL_Driver/Src/stm32f3xx_hal_exti.c ****   uint32_t offset;
 555              		.loc 1 364 3 view .LVU202
 365:Drivers/STM32F3xx_HAL_Driver/Src/stm32f3xx_hal_exti.c **** 
 366:Drivers/STM32F3xx_HAL_Driver/Src/stm32f3xx_hal_exti.c ****   /* Check null pointer */
 367:Drivers/STM32F3xx_HAL_Driver/Src/stm32f3xx_hal_exti.c ****   if (hexti == NULL)
 556              		.loc 1 367 3 view .LVU203
 557              		.loc 1 367 6 is_stmt 0 view .LVU204
ARM GAS  /var/folders/bp/hbn4m0qx5z54srgsq53w67zh0000gr/T//cckjtWMu.s 			page 18


 558 0000 0028     		cmp	r0, #0
 559 0002 41D0     		beq	.L41
 359:Drivers/STM32F3xx_HAL_Driver/Src/stm32f3xx_hal_exti.c ****   __IO uint32_t *regaddr;
 560              		.loc 1 359 1 view .LVU205
 561 0004 30B5     		push	{r4, r5, lr}
 562              	.LCFI7:
 563              		.cfi_def_cfa_offset 12
 564              		.cfi_offset 4, -12
 565              		.cfi_offset 5, -8
 566              		.cfi_offset 14, -4
 567 0006 8446     		mov	ip, r0
 368:Drivers/STM32F3xx_HAL_Driver/Src/stm32f3xx_hal_exti.c ****   {
 369:Drivers/STM32F3xx_HAL_Driver/Src/stm32f3xx_hal_exti.c ****     return HAL_ERROR;
 370:Drivers/STM32F3xx_HAL_Driver/Src/stm32f3xx_hal_exti.c ****   }
 371:Drivers/STM32F3xx_HAL_Driver/Src/stm32f3xx_hal_exti.c **** 
 372:Drivers/STM32F3xx_HAL_Driver/Src/stm32f3xx_hal_exti.c ****   /* Check the parameter */
 373:Drivers/STM32F3xx_HAL_Driver/Src/stm32f3xx_hal_exti.c ****   assert_param(IS_EXTI_LINE(hexti->Line));
 568              		.loc 1 373 3 is_stmt 1 view .LVU206
 374:Drivers/STM32F3xx_HAL_Driver/Src/stm32f3xx_hal_exti.c **** 
 375:Drivers/STM32F3xx_HAL_Driver/Src/stm32f3xx_hal_exti.c ****   /* compute line register offset and line mask */
 376:Drivers/STM32F3xx_HAL_Driver/Src/stm32f3xx_hal_exti.c ****   offset = ((hexti->Line & EXTI_REG_MASK) >> EXTI_REG_SHIFT);
 569              		.loc 1 376 3 view .LVU207
 570              		.loc 1 376 19 is_stmt 0 view .LVU208
 571 0008 0468     		ldr	r4, [r0]
 572              		.loc 1 376 10 view .LVU209
 573 000a C4F30043 		ubfx	r3, r4, #16, #1
 574              	.LVL72:
 377:Drivers/STM32F3xx_HAL_Driver/Src/stm32f3xx_hal_exti.c ****   linepos = (hexti->Line & EXTI_PIN_MASK);
 575              		.loc 1 377 3 is_stmt 1 view .LVU210
 576              		.loc 1 377 11 is_stmt 0 view .LVU211
 577 000e 04F01F0E 		and	lr, r4, #31
 578              	.LVL73:
 378:Drivers/STM32F3xx_HAL_Driver/Src/stm32f3xx_hal_exti.c ****   maskline = (1uL << linepos);
 579              		.loc 1 378 3 is_stmt 1 view .LVU212
 580              		.loc 1 378 12 is_stmt 0 view .LVU213
 581 0012 0122     		movs	r2, #1
 582 0014 02FA0EF2 		lsl	r2, r2, lr
 583              	.LVL74:
 379:Drivers/STM32F3xx_HAL_Driver/Src/stm32f3xx_hal_exti.c **** 
 380:Drivers/STM32F3xx_HAL_Driver/Src/stm32f3xx_hal_exti.c ****   /* 1] Clear interrupt mode */
 381:Drivers/STM32F3xx_HAL_Driver/Src/stm32f3xx_hal_exti.c ****   regaddr = (&EXTI->IMR + (EXTI_MODE_OFFSET * offset));
 584              		.loc 1 381 3 is_stmt 1 view .LVU214
 585              		.loc 1 381 25 is_stmt 0 view .LVU215
 586 0018 5B01     		lsls	r3, r3, #5
 587              	.LVL75:
 588              		.loc 1 381 11 view .LVU216
 589 001a 03F18041 		add	r1, r3, #1073741824
 590 001e 01F58231 		add	r1, r1, #66560
 591              	.LVL76:
 382:Drivers/STM32F3xx_HAL_Driver/Src/stm32f3xx_hal_exti.c ****   regval = (*regaddr & ~maskline);
 592              		.loc 1 382 3 is_stmt 1 view .LVU217
 593              		.loc 1 382 13 is_stmt 0 view .LVU218
 594 0022 0868     		ldr	r0, [r1]
 595              	.LVL77:
 596              		.loc 1 382 24 view .LVU219
 597 0024 D543     		mvns	r5, r2
 598              		.loc 1 382 10 view .LVU220
ARM GAS  /var/folders/bp/hbn4m0qx5z54srgsq53w67zh0000gr/T//cckjtWMu.s 			page 19


 599 0026 20EA0200 		bic	r0, r0, r2
 600              	.LVL78:
 383:Drivers/STM32F3xx_HAL_Driver/Src/stm32f3xx_hal_exti.c ****   *regaddr = regval;
 601              		.loc 1 383 3 is_stmt 1 view .LVU221
 602              		.loc 1 383 12 is_stmt 0 view .LVU222
 603 002a 0860     		str	r0, [r1]
 384:Drivers/STM32F3xx_HAL_Driver/Src/stm32f3xx_hal_exti.c **** 
 385:Drivers/STM32F3xx_HAL_Driver/Src/stm32f3xx_hal_exti.c ****   /* 2] Clear event mode */
 386:Drivers/STM32F3xx_HAL_Driver/Src/stm32f3xx_hal_exti.c ****   regaddr = (&EXTI->EMR + (EXTI_MODE_OFFSET * offset));
 604              		.loc 1 386 3 is_stmt 1 view .LVU223
 605              		.loc 1 386 11 is_stmt 0 view .LVU224
 606 002c 1848     		ldr	r0, .L49
 607              	.LVL79:
 387:Drivers/STM32F3xx_HAL_Driver/Src/stm32f3xx_hal_exti.c ****   regval = (*regaddr & ~maskline);
 608              		.loc 1 387 3 is_stmt 1 view .LVU225
 609              		.loc 1 387 13 is_stmt 0 view .LVU226
 610 002e 1958     		ldr	r1, [r3, r0]
 611              	.LVL80:
 612              		.loc 1 387 10 view .LVU227
 613 0030 21EA0202 		bic	r2, r1, r2
 614              	.LVL81:
 388:Drivers/STM32F3xx_HAL_Driver/Src/stm32f3xx_hal_exti.c ****   *regaddr = regval;
 615              		.loc 1 388 3 is_stmt 1 view .LVU228
 616              		.loc 1 388 12 is_stmt 0 view .LVU229
 617 0034 1A50     		str	r2, [r3, r0]
 389:Drivers/STM32F3xx_HAL_Driver/Src/stm32f3xx_hal_exti.c **** 
 390:Drivers/STM32F3xx_HAL_Driver/Src/stm32f3xx_hal_exti.c ****   /* 3] Clear triggers in case of configurable lines */
 391:Drivers/STM32F3xx_HAL_Driver/Src/stm32f3xx_hal_exti.c ****   if ((hexti->Line & EXTI_CONFIG) != 0x00u)
 618              		.loc 1 391 3 is_stmt 1 view .LVU230
 619              		.loc 1 391 13 is_stmt 0 view .LVU231
 620 0036 DCF80020 		ldr	r2, [ip]
 621              	.LVL82:
 622              		.loc 1 391 6 view .LVU232
 623 003a 12F0007F 		tst	r2, #33554432
 624 003e 25D0     		beq	.L42
 392:Drivers/STM32F3xx_HAL_Driver/Src/stm32f3xx_hal_exti.c ****   {
 393:Drivers/STM32F3xx_HAL_Driver/Src/stm32f3xx_hal_exti.c ****     regaddr = (&EXTI->RTSR + (EXTI_CONFIG_OFFSET * offset));
 625              		.loc 1 393 5 is_stmt 1 view .LVU233
 626              		.loc 1 393 13 is_stmt 0 view .LVU234
 627 0040 1449     		ldr	r1, .L49+4
 628              	.LVL83:
 394:Drivers/STM32F3xx_HAL_Driver/Src/stm32f3xx_hal_exti.c ****     regval = (*regaddr & ~maskline);
 629              		.loc 1 394 5 is_stmt 1 view .LVU235
 630              		.loc 1 394 15 is_stmt 0 view .LVU236
 631 0042 5A58     		ldr	r2, [r3, r1]
 632              		.loc 1 394 12 view .LVU237
 633 0044 2A40     		ands	r2, r2, r5
 634              	.LVL84:
 395:Drivers/STM32F3xx_HAL_Driver/Src/stm32f3xx_hal_exti.c ****     *regaddr = regval;
 635              		.loc 1 395 5 is_stmt 1 view .LVU238
 636              		.loc 1 395 14 is_stmt 0 view .LVU239
 637 0046 5A50     		str	r2, [r3, r1]
 396:Drivers/STM32F3xx_HAL_Driver/Src/stm32f3xx_hal_exti.c **** 
 397:Drivers/STM32F3xx_HAL_Driver/Src/stm32f3xx_hal_exti.c ****     regaddr = (&EXTI->FTSR + (EXTI_CONFIG_OFFSET * offset));
 638              		.loc 1 397 5 is_stmt 1 view .LVU240
 639              		.loc 1 397 13 is_stmt 0 view .LVU241
 640 0048 134A     		ldr	r2, .L49+8
ARM GAS  /var/folders/bp/hbn4m0qx5z54srgsq53w67zh0000gr/T//cckjtWMu.s 			page 20


 641              	.LVL85:
 398:Drivers/STM32F3xx_HAL_Driver/Src/stm32f3xx_hal_exti.c ****     regval = (*regaddr & ~maskline);
 642              		.loc 1 398 5 is_stmt 1 view .LVU242
 643              		.loc 1 398 15 is_stmt 0 view .LVU243
 644 004a 9958     		ldr	r1, [r3, r2]
 645              	.LVL86:
 646              		.loc 1 398 12 view .LVU244
 647 004c 0D40     		ands	r5, r5, r1
 648              	.LVL87:
 399:Drivers/STM32F3xx_HAL_Driver/Src/stm32f3xx_hal_exti.c ****     *regaddr = regval;
 649              		.loc 1 399 5 is_stmt 1 view .LVU245
 650              		.loc 1 399 14 is_stmt 0 view .LVU246
 651 004e 9D50     		str	r5, [r3, r2]
 400:Drivers/STM32F3xx_HAL_Driver/Src/stm32f3xx_hal_exti.c **** 
 401:Drivers/STM32F3xx_HAL_Driver/Src/stm32f3xx_hal_exti.c ****     /* Get Gpio port selection for gpio lines */
 402:Drivers/STM32F3xx_HAL_Driver/Src/stm32f3xx_hal_exti.c ****     if ((hexti->Line & EXTI_GPIO) == EXTI_GPIO)
 652              		.loc 1 402 5 is_stmt 1 view .LVU247
 653              		.loc 1 402 15 is_stmt 0 view .LVU248
 654 0050 DCF80030 		ldr	r3, [ip]
 655              	.LVL88:
 656              		.loc 1 402 22 view .LVU249
 657 0054 03F0C063 		and	r3, r3, #100663296
 658              		.loc 1 402 8 view .LVU250
 659 0058 B3F1C06F 		cmp	r3, #100663296
 660 005c 01D0     		beq	.L48
 403:Drivers/STM32F3xx_HAL_Driver/Src/stm32f3xx_hal_exti.c ****     {
 404:Drivers/STM32F3xx_HAL_Driver/Src/stm32f3xx_hal_exti.c ****       assert_param(IS_EXTI_GPIO_PIN(linepos));
 405:Drivers/STM32F3xx_HAL_Driver/Src/stm32f3xx_hal_exti.c **** 
 406:Drivers/STM32F3xx_HAL_Driver/Src/stm32f3xx_hal_exti.c ****       regval = SYSCFG->EXTICR[linepos >> 2u];
 407:Drivers/STM32F3xx_HAL_Driver/Src/stm32f3xx_hal_exti.c ****       regval &= ~(SYSCFG_EXTICR1_EXTI0 << (SYSCFG_EXTICR1_EXTI1_Pos * (linepos & 0x03u)));
 408:Drivers/STM32F3xx_HAL_Driver/Src/stm32f3xx_hal_exti.c ****       SYSCFG->EXTICR[linepos >> 2u] = regval;
 409:Drivers/STM32F3xx_HAL_Driver/Src/stm32f3xx_hal_exti.c ****     }
 410:Drivers/STM32F3xx_HAL_Driver/Src/stm32f3xx_hal_exti.c ****   }
 411:Drivers/STM32F3xx_HAL_Driver/Src/stm32f3xx_hal_exti.c **** 
 412:Drivers/STM32F3xx_HAL_Driver/Src/stm32f3xx_hal_exti.c ****   return HAL_OK;
 661              		.loc 1 412 10 view .LVU251
 662 005e 0020     		movs	r0, #0
 663 0060 15E0     		b	.L40
 664              	.L48:
 404:Drivers/STM32F3xx_HAL_Driver/Src/stm32f3xx_hal_exti.c **** 
 665              		.loc 1 404 7 is_stmt 1 view .LVU252
 406:Drivers/STM32F3xx_HAL_Driver/Src/stm32f3xx_hal_exti.c ****       regval &= ~(SYSCFG_EXTICR1_EXTI0 << (SYSCFG_EXTICR1_EXTI1_Pos * (linepos & 0x03u)));
 666              		.loc 1 406 7 view .LVU253
 406:Drivers/STM32F3xx_HAL_Driver/Src/stm32f3xx_hal_exti.c ****       regval &= ~(SYSCFG_EXTICR1_EXTI0 << (SYSCFG_EXTICR1_EXTI1_Pos * (linepos & 0x03u)));
 667              		.loc 1 406 39 is_stmt 0 view .LVU254
 668 0062 4FEA9E0E 		lsr	lr, lr, #2
 669              	.LVL89:
 406:Drivers/STM32F3xx_HAL_Driver/Src/stm32f3xx_hal_exti.c ****       regval &= ~(SYSCFG_EXTICR1_EXTI0 << (SYSCFG_EXTICR1_EXTI1_Pos * (linepos & 0x03u)));
 670              		.loc 1 406 14 view .LVU255
 671 0066 0D49     		ldr	r1, .L49+12
 672 0068 0EF1020E 		add	lr, lr, #2
 673 006c 51F82E30 		ldr	r3, [r1, lr, lsl #2]
 674              	.LVL90:
 407:Drivers/STM32F3xx_HAL_Driver/Src/stm32f3xx_hal_exti.c ****       SYSCFG->EXTICR[linepos >> 2u] = regval;
 675              		.loc 1 407 7 is_stmt 1 view .LVU256
 407:Drivers/STM32F3xx_HAL_Driver/Src/stm32f3xx_hal_exti.c ****       SYSCFG->EXTICR[linepos >> 2u] = regval;
 676              		.loc 1 407 80 is_stmt 0 view .LVU257
ARM GAS  /var/folders/bp/hbn4m0qx5z54srgsq53w67zh0000gr/T//cckjtWMu.s 			page 21


 677 0070 04F00304 		and	r4, r4, #3
 678              	.LVL91:
 407:Drivers/STM32F3xx_HAL_Driver/Src/stm32f3xx_hal_exti.c ****       SYSCFG->EXTICR[linepos >> 2u] = regval;
 679              		.loc 1 407 69 view .LVU258
 680 0074 A400     		lsls	r4, r4, #2
 407:Drivers/STM32F3xx_HAL_Driver/Src/stm32f3xx_hal_exti.c ****       SYSCFG->EXTICR[linepos >> 2u] = regval;
 681              		.loc 1 407 40 view .LVU259
 682 0076 0F22     		movs	r2, #15
 683 0078 02FA04F4 		lsl	r4, r2, r4
 407:Drivers/STM32F3xx_HAL_Driver/Src/stm32f3xx_hal_exti.c ****       SYSCFG->EXTICR[linepos >> 2u] = regval;
 684              		.loc 1 407 14 view .LVU260
 685 007c 23EA0404 		bic	r4, r3, r4
 686              	.LVL92:
 408:Drivers/STM32F3xx_HAL_Driver/Src/stm32f3xx_hal_exti.c ****     }
 687              		.loc 1 408 7 is_stmt 1 view .LVU261
 408:Drivers/STM32F3xx_HAL_Driver/Src/stm32f3xx_hal_exti.c ****     }
 688              		.loc 1 408 37 is_stmt 0 view .LVU262
 689 0080 41F82E40 		str	r4, [r1, lr, lsl #2]
 690              		.loc 1 412 10 view .LVU263
 691 0084 0020     		movs	r0, #0
 692 0086 02E0     		b	.L40
 693              	.LVL93:
 694              	.L41:
 695              	.LCFI8:
 696              		.cfi_def_cfa_offset 0
 697              		.cfi_restore 4
 698              		.cfi_restore 5
 699              		.cfi_restore 14
 369:Drivers/STM32F3xx_HAL_Driver/Src/stm32f3xx_hal_exti.c ****   }
 700              		.loc 1 369 12 view .LVU264
 701 0088 0120     		movs	r0, #1
 702              	.LVL94:
 413:Drivers/STM32F3xx_HAL_Driver/Src/stm32f3xx_hal_exti.c **** }
 703              		.loc 1 413 1 view .LVU265
 704 008a 7047     		bx	lr
 705              	.LVL95:
 706              	.L42:
 707              	.LCFI9:
 708              		.cfi_def_cfa_offset 12
 709              		.cfi_offset 4, -12
 710              		.cfi_offset 5, -8
 711              		.cfi_offset 14, -4
 412:Drivers/STM32F3xx_HAL_Driver/Src/stm32f3xx_hal_exti.c **** }
 712              		.loc 1 412 10 view .LVU266
 713 008c 0020     		movs	r0, #0
 714              	.LVL96:
 715              	.L40:
 716              		.loc 1 413 1 view .LVU267
 717 008e 30BD     		pop	{r4, r5, pc}
 718              	.L50:
 719              		.align	2
 720              	.L49:
 721 0090 04040140 		.word	1073808388
 722 0094 08040140 		.word	1073808392
 723 0098 0C040140 		.word	1073808396
 724 009c 00000140 		.word	1073807360
 725              		.cfi_endproc
ARM GAS  /var/folders/bp/hbn4m0qx5z54srgsq53w67zh0000gr/T//cckjtWMu.s 			page 22


 726              	.LFE125:
 728              		.section	.text.HAL_EXTI_RegisterCallback,"ax",%progbits
 729              		.align	1
 730              		.global	HAL_EXTI_RegisterCallback
 731              		.syntax unified
 732              		.thumb
 733              		.thumb_func
 734              		.fpu fpv4-sp-d16
 736              	HAL_EXTI_RegisterCallback:
 737              	.LVL97:
 738              	.LFB126:
 414:Drivers/STM32F3xx_HAL_Driver/Src/stm32f3xx_hal_exti.c **** 
 415:Drivers/STM32F3xx_HAL_Driver/Src/stm32f3xx_hal_exti.c **** /**
 416:Drivers/STM32F3xx_HAL_Driver/Src/stm32f3xx_hal_exti.c ****   * @brief  Register callback for a dedicated Exti line.
 417:Drivers/STM32F3xx_HAL_Driver/Src/stm32f3xx_hal_exti.c ****   * @param  hexti Exti handle.
 418:Drivers/STM32F3xx_HAL_Driver/Src/stm32f3xx_hal_exti.c ****   * @param  CallbackID User callback identifier.
 419:Drivers/STM32F3xx_HAL_Driver/Src/stm32f3xx_hal_exti.c ****   *         This parameter can be one of @arg @ref EXTI_CallbackIDTypeDef values.
 420:Drivers/STM32F3xx_HAL_Driver/Src/stm32f3xx_hal_exti.c ****   * @param  pPendingCbfn function pointer to be stored as callback.
 421:Drivers/STM32F3xx_HAL_Driver/Src/stm32f3xx_hal_exti.c ****   * @retval HAL Status.
 422:Drivers/STM32F3xx_HAL_Driver/Src/stm32f3xx_hal_exti.c ****   */
 423:Drivers/STM32F3xx_HAL_Driver/Src/stm32f3xx_hal_exti.c **** HAL_StatusTypeDef HAL_EXTI_RegisterCallback(EXTI_HandleTypeDef *hexti, EXTI_CallbackIDTypeDef Callb
 424:Drivers/STM32F3xx_HAL_Driver/Src/stm32f3xx_hal_exti.c **** {
 739              		.loc 1 424 1 is_stmt 1 view -0
 740              		.cfi_startproc
 741              		@ args = 0, pretend = 0, frame = 0
 742              		@ frame_needed = 0, uses_anonymous_args = 0
 743              		@ link register save eliminated.
 744              		.loc 1 424 1 is_stmt 0 view .LVU269
 745 0000 0346     		mov	r3, r0
 425:Drivers/STM32F3xx_HAL_Driver/Src/stm32f3xx_hal_exti.c ****   HAL_StatusTypeDef status = HAL_OK;
 746              		.loc 1 425 3 is_stmt 1 view .LVU270
 747              	.LVL98:
 426:Drivers/STM32F3xx_HAL_Driver/Src/stm32f3xx_hal_exti.c **** 
 427:Drivers/STM32F3xx_HAL_Driver/Src/stm32f3xx_hal_exti.c ****   switch (CallbackID)
 748              		.loc 1 427 3 view .LVU271
 749 0002 0846     		mov	r0, r1
 750              	.LVL99:
 751              		.loc 1 427 3 is_stmt 0 view .LVU272
 752 0004 09B9     		cbnz	r1, .L53
 428:Drivers/STM32F3xx_HAL_Driver/Src/stm32f3xx_hal_exti.c ****   {
 429:Drivers/STM32F3xx_HAL_Driver/Src/stm32f3xx_hal_exti.c ****     case  HAL_EXTI_COMMON_CB_ID:
 430:Drivers/STM32F3xx_HAL_Driver/Src/stm32f3xx_hal_exti.c ****       hexti->PendingCallback = pPendingCbfn;
 753              		.loc 1 430 7 is_stmt 1 view .LVU273
 754              		.loc 1 430 30 is_stmt 0 view .LVU274
 755 0006 5A60     		str	r2, [r3, #4]
 431:Drivers/STM32F3xx_HAL_Driver/Src/stm32f3xx_hal_exti.c ****       break;
 756              		.loc 1 431 7 is_stmt 1 view .LVU275
 757 0008 7047     		bx	lr
 758              	.L53:
 432:Drivers/STM32F3xx_HAL_Driver/Src/stm32f3xx_hal_exti.c **** 
 433:Drivers/STM32F3xx_HAL_Driver/Src/stm32f3xx_hal_exti.c ****     default:
 434:Drivers/STM32F3xx_HAL_Driver/Src/stm32f3xx_hal_exti.c ****       status = HAL_ERROR;
 759              		.loc 1 434 14 is_stmt 0 view .LVU276
 760 000a 0120     		movs	r0, #1
 761              	.LVL100:
 435:Drivers/STM32F3xx_HAL_Driver/Src/stm32f3xx_hal_exti.c ****       break;
 436:Drivers/STM32F3xx_HAL_Driver/Src/stm32f3xx_hal_exti.c ****   }
ARM GAS  /var/folders/bp/hbn4m0qx5z54srgsq53w67zh0000gr/T//cckjtWMu.s 			page 23


 437:Drivers/STM32F3xx_HAL_Driver/Src/stm32f3xx_hal_exti.c **** 
 438:Drivers/STM32F3xx_HAL_Driver/Src/stm32f3xx_hal_exti.c ****   return status;
 762              		.loc 1 438 3 is_stmt 1 view .LVU277
 439:Drivers/STM32F3xx_HAL_Driver/Src/stm32f3xx_hal_exti.c **** }
 763              		.loc 1 439 1 is_stmt 0 view .LVU278
 764 000c 7047     		bx	lr
 765              		.cfi_endproc
 766              	.LFE126:
 768              		.section	.text.HAL_EXTI_GetHandle,"ax",%progbits
 769              		.align	1
 770              		.global	HAL_EXTI_GetHandle
 771              		.syntax unified
 772              		.thumb
 773              		.thumb_func
 774              		.fpu fpv4-sp-d16
 776              	HAL_EXTI_GetHandle:
 777              	.LVL101:
 778              	.LFB127:
 440:Drivers/STM32F3xx_HAL_Driver/Src/stm32f3xx_hal_exti.c **** 
 441:Drivers/STM32F3xx_HAL_Driver/Src/stm32f3xx_hal_exti.c **** /**
 442:Drivers/STM32F3xx_HAL_Driver/Src/stm32f3xx_hal_exti.c ****   * @brief  Store line number as handle private field.
 443:Drivers/STM32F3xx_HAL_Driver/Src/stm32f3xx_hal_exti.c ****   * @param  hexti Exti handle.
 444:Drivers/STM32F3xx_HAL_Driver/Src/stm32f3xx_hal_exti.c ****   * @param  ExtiLine Exti line number.
 445:Drivers/STM32F3xx_HAL_Driver/Src/stm32f3xx_hal_exti.c ****   *         This parameter can be from 0 to @ref EXTI_LINE_NB.
 446:Drivers/STM32F3xx_HAL_Driver/Src/stm32f3xx_hal_exti.c ****   * @retval HAL Status.
 447:Drivers/STM32F3xx_HAL_Driver/Src/stm32f3xx_hal_exti.c ****   */
 448:Drivers/STM32F3xx_HAL_Driver/Src/stm32f3xx_hal_exti.c **** HAL_StatusTypeDef HAL_EXTI_GetHandle(EXTI_HandleTypeDef *hexti, uint32_t ExtiLine)
 449:Drivers/STM32F3xx_HAL_Driver/Src/stm32f3xx_hal_exti.c **** {
 779              		.loc 1 449 1 is_stmt 1 view -0
 780              		.cfi_startproc
 781              		@ args = 0, pretend = 0, frame = 0
 782              		@ frame_needed = 0, uses_anonymous_args = 0
 783              		@ link register save eliminated.
 450:Drivers/STM32F3xx_HAL_Driver/Src/stm32f3xx_hal_exti.c ****   /* Check the parameters */
 451:Drivers/STM32F3xx_HAL_Driver/Src/stm32f3xx_hal_exti.c ****   assert_param(IS_EXTI_LINE(ExtiLine));
 784              		.loc 1 451 3 view .LVU280
 452:Drivers/STM32F3xx_HAL_Driver/Src/stm32f3xx_hal_exti.c **** 
 453:Drivers/STM32F3xx_HAL_Driver/Src/stm32f3xx_hal_exti.c ****   /* Check null pointer */
 454:Drivers/STM32F3xx_HAL_Driver/Src/stm32f3xx_hal_exti.c ****   if (hexti == NULL)
 785              		.loc 1 454 3 view .LVU281
 786              		.loc 1 454 6 is_stmt 0 view .LVU282
 787 0000 10B1     		cbz	r0, .L56
 455:Drivers/STM32F3xx_HAL_Driver/Src/stm32f3xx_hal_exti.c ****   {
 456:Drivers/STM32F3xx_HAL_Driver/Src/stm32f3xx_hal_exti.c ****     return HAL_ERROR;
 457:Drivers/STM32F3xx_HAL_Driver/Src/stm32f3xx_hal_exti.c ****   }
 458:Drivers/STM32F3xx_HAL_Driver/Src/stm32f3xx_hal_exti.c ****   else
 459:Drivers/STM32F3xx_HAL_Driver/Src/stm32f3xx_hal_exti.c ****   {
 460:Drivers/STM32F3xx_HAL_Driver/Src/stm32f3xx_hal_exti.c ****     /* Store line number as handle private field */
 461:Drivers/STM32F3xx_HAL_Driver/Src/stm32f3xx_hal_exti.c ****     hexti->Line = ExtiLine;
 788              		.loc 1 461 5 is_stmt 1 view .LVU283
 789              		.loc 1 461 17 is_stmt 0 view .LVU284
 790 0002 0160     		str	r1, [r0]
 462:Drivers/STM32F3xx_HAL_Driver/Src/stm32f3xx_hal_exti.c **** 
 463:Drivers/STM32F3xx_HAL_Driver/Src/stm32f3xx_hal_exti.c ****     return HAL_OK;
 791              		.loc 1 463 5 is_stmt 1 view .LVU285
 792              		.loc 1 463 12 is_stmt 0 view .LVU286
 793 0004 0020     		movs	r0, #0
ARM GAS  /var/folders/bp/hbn4m0qx5z54srgsq53w67zh0000gr/T//cckjtWMu.s 			page 24


 794              	.LVL102:
 795              		.loc 1 463 12 view .LVU287
 796 0006 7047     		bx	lr
 797              	.LVL103:
 798              	.L56:
 456:Drivers/STM32F3xx_HAL_Driver/Src/stm32f3xx_hal_exti.c ****   }
 799              		.loc 1 456 12 view .LVU288
 800 0008 0120     		movs	r0, #1
 801              	.LVL104:
 464:Drivers/STM32F3xx_HAL_Driver/Src/stm32f3xx_hal_exti.c ****   }
 465:Drivers/STM32F3xx_HAL_Driver/Src/stm32f3xx_hal_exti.c **** }
 802              		.loc 1 465 1 view .LVU289
 803 000a 7047     		bx	lr
 804              		.cfi_endproc
 805              	.LFE127:
 807              		.section	.text.HAL_EXTI_IRQHandler,"ax",%progbits
 808              		.align	1
 809              		.global	HAL_EXTI_IRQHandler
 810              		.syntax unified
 811              		.thumb
 812              		.thumb_func
 813              		.fpu fpv4-sp-d16
 815              	HAL_EXTI_IRQHandler:
 816              	.LVL105:
 817              	.LFB128:
 466:Drivers/STM32F3xx_HAL_Driver/Src/stm32f3xx_hal_exti.c **** 
 467:Drivers/STM32F3xx_HAL_Driver/Src/stm32f3xx_hal_exti.c **** /**
 468:Drivers/STM32F3xx_HAL_Driver/Src/stm32f3xx_hal_exti.c ****   * @}
 469:Drivers/STM32F3xx_HAL_Driver/Src/stm32f3xx_hal_exti.c ****   */
 470:Drivers/STM32F3xx_HAL_Driver/Src/stm32f3xx_hal_exti.c **** 
 471:Drivers/STM32F3xx_HAL_Driver/Src/stm32f3xx_hal_exti.c **** /** @addtogroup EXTI_Exported_Functions_Group2
 472:Drivers/STM32F3xx_HAL_Driver/Src/stm32f3xx_hal_exti.c ****   *  @brief EXTI IO functions.
 473:Drivers/STM32F3xx_HAL_Driver/Src/stm32f3xx_hal_exti.c ****   *
 474:Drivers/STM32F3xx_HAL_Driver/Src/stm32f3xx_hal_exti.c **** @verbatim
 475:Drivers/STM32F3xx_HAL_Driver/Src/stm32f3xx_hal_exti.c ****  ===============================================================================
 476:Drivers/STM32F3xx_HAL_Driver/Src/stm32f3xx_hal_exti.c ****                        ##### IO operation functions #####
 477:Drivers/STM32F3xx_HAL_Driver/Src/stm32f3xx_hal_exti.c ****  ===============================================================================
 478:Drivers/STM32F3xx_HAL_Driver/Src/stm32f3xx_hal_exti.c **** 
 479:Drivers/STM32F3xx_HAL_Driver/Src/stm32f3xx_hal_exti.c **** @endverbatim
 480:Drivers/STM32F3xx_HAL_Driver/Src/stm32f3xx_hal_exti.c ****   * @{
 481:Drivers/STM32F3xx_HAL_Driver/Src/stm32f3xx_hal_exti.c ****   */
 482:Drivers/STM32F3xx_HAL_Driver/Src/stm32f3xx_hal_exti.c **** 
 483:Drivers/STM32F3xx_HAL_Driver/Src/stm32f3xx_hal_exti.c **** /**
 484:Drivers/STM32F3xx_HAL_Driver/Src/stm32f3xx_hal_exti.c ****   * @brief  Handle EXTI interrupt request.
 485:Drivers/STM32F3xx_HAL_Driver/Src/stm32f3xx_hal_exti.c ****   * @param  hexti Exti handle.
 486:Drivers/STM32F3xx_HAL_Driver/Src/stm32f3xx_hal_exti.c ****   * @retval none.
 487:Drivers/STM32F3xx_HAL_Driver/Src/stm32f3xx_hal_exti.c ****   */
 488:Drivers/STM32F3xx_HAL_Driver/Src/stm32f3xx_hal_exti.c **** void HAL_EXTI_IRQHandler(EXTI_HandleTypeDef *hexti)
 489:Drivers/STM32F3xx_HAL_Driver/Src/stm32f3xx_hal_exti.c **** {
 818              		.loc 1 489 1 is_stmt 1 view -0
 819              		.cfi_startproc
 820              		@ args = 0, pretend = 0, frame = 0
 821              		@ frame_needed = 0, uses_anonymous_args = 0
 822              		.loc 1 489 1 is_stmt 0 view .LVU291
 823 0000 08B5     		push	{r3, lr}
 824              	.LCFI10:
 825              		.cfi_def_cfa_offset 8
ARM GAS  /var/folders/bp/hbn4m0qx5z54srgsq53w67zh0000gr/T//cckjtWMu.s 			page 25


 826              		.cfi_offset 3, -8
 827              		.cfi_offset 14, -4
 490:Drivers/STM32F3xx_HAL_Driver/Src/stm32f3xx_hal_exti.c ****   __IO uint32_t *regaddr;
 828              		.loc 1 490 3 is_stmt 1 view .LVU292
 491:Drivers/STM32F3xx_HAL_Driver/Src/stm32f3xx_hal_exti.c ****   uint32_t regval;
 829              		.loc 1 491 3 view .LVU293
 492:Drivers/STM32F3xx_HAL_Driver/Src/stm32f3xx_hal_exti.c ****   uint32_t maskline;
 830              		.loc 1 492 3 view .LVU294
 493:Drivers/STM32F3xx_HAL_Driver/Src/stm32f3xx_hal_exti.c ****   uint32_t offset;
 831              		.loc 1 493 3 view .LVU295
 494:Drivers/STM32F3xx_HAL_Driver/Src/stm32f3xx_hal_exti.c **** 
 495:Drivers/STM32F3xx_HAL_Driver/Src/stm32f3xx_hal_exti.c ****   /* Compute line register offset and line mask */
 496:Drivers/STM32F3xx_HAL_Driver/Src/stm32f3xx_hal_exti.c ****   offset = ((hexti->Line & EXTI_REG_MASK) >> EXTI_REG_SHIFT);
 832              		.loc 1 496 3 view .LVU296
 833              		.loc 1 496 19 is_stmt 0 view .LVU297
 834 0002 0368     		ldr	r3, [r0]
 835              		.loc 1 496 10 view .LVU298
 836 0004 C3F30041 		ubfx	r1, r3, #16, #1
 837              	.LVL106:
 497:Drivers/STM32F3xx_HAL_Driver/Src/stm32f3xx_hal_exti.c ****   maskline = (1uL << (hexti->Line & EXTI_PIN_MASK));
 838              		.loc 1 497 3 is_stmt 1 view .LVU299
 839              		.loc 1 497 35 is_stmt 0 view .LVU300
 840 0008 03F01F03 		and	r3, r3, #31
 841              		.loc 1 497 12 view .LVU301
 842 000c 0122     		movs	r2, #1
 843 000e 02FA03F3 		lsl	r3, r2, r3
 844              	.LVL107:
 498:Drivers/STM32F3xx_HAL_Driver/Src/stm32f3xx_hal_exti.c **** 
 499:Drivers/STM32F3xx_HAL_Driver/Src/stm32f3xx_hal_exti.c ****   /* Get pending bit  */
 500:Drivers/STM32F3xx_HAL_Driver/Src/stm32f3xx_hal_exti.c ****   regaddr = (&EXTI->PR + (EXTI_CONFIG_OFFSET * offset));
 845              		.loc 1 500 3 is_stmt 1 view .LVU302
 846              		.loc 1 500 24 is_stmt 0 view .LVU303
 847 0012 4A01     		lsls	r2, r1, #5
 848              		.loc 1 500 11 view .LVU304
 849 0014 0449     		ldr	r1, .L60
 850              	.LVL108:
 501:Drivers/STM32F3xx_HAL_Driver/Src/stm32f3xx_hal_exti.c ****   regval = (*regaddr & maskline);
 851              		.loc 1 501 3 is_stmt 1 view .LVU305
 852              		.loc 1 501 13 is_stmt 0 view .LVU306
 853 0016 5258     		ldr	r2, [r2, r1]
 854              	.LVL109:
 502:Drivers/STM32F3xx_HAL_Driver/Src/stm32f3xx_hal_exti.c **** 
 503:Drivers/STM32F3xx_HAL_Driver/Src/stm32f3xx_hal_exti.c ****   if (regval != 0x00u)
 855              		.loc 1 503 3 is_stmt 1 view .LVU307
 856              		.loc 1 503 6 is_stmt 0 view .LVU308
 857 0018 1A42     		tst	r2, r3
 858 001a 04D0     		beq	.L57
 504:Drivers/STM32F3xx_HAL_Driver/Src/stm32f3xx_hal_exti.c ****   {
 505:Drivers/STM32F3xx_HAL_Driver/Src/stm32f3xx_hal_exti.c ****     /* Clear pending bit */
 506:Drivers/STM32F3xx_HAL_Driver/Src/stm32f3xx_hal_exti.c ****     EXTI->PR = maskline;
 859              		.loc 1 506 5 is_stmt 1 view .LVU309
 860              		.loc 1 506 14 is_stmt 0 view .LVU310
 861 001c 034A     		ldr	r2, .L60+4
 862              	.LVL110:
 863              		.loc 1 506 14 view .LVU311
 864 001e 5361     		str	r3, [r2, #20]
 865              	.LVL111:
ARM GAS  /var/folders/bp/hbn4m0qx5z54srgsq53w67zh0000gr/T//cckjtWMu.s 			page 26


 507:Drivers/STM32F3xx_HAL_Driver/Src/stm32f3xx_hal_exti.c **** 
 508:Drivers/STM32F3xx_HAL_Driver/Src/stm32f3xx_hal_exti.c ****     /* Call callback */
 509:Drivers/STM32F3xx_HAL_Driver/Src/stm32f3xx_hal_exti.c ****     if (hexti->PendingCallback != NULL)
 866              		.loc 1 509 5 is_stmt 1 view .LVU312
 867              		.loc 1 509 14 is_stmt 0 view .LVU313
 868 0020 4368     		ldr	r3, [r0, #4]
 869              	.LVL112:
 870              		.loc 1 509 8 view .LVU314
 871 0022 03B1     		cbz	r3, .L57
 510:Drivers/STM32F3xx_HAL_Driver/Src/stm32f3xx_hal_exti.c ****     {
 511:Drivers/STM32F3xx_HAL_Driver/Src/stm32f3xx_hal_exti.c ****       hexti->PendingCallback();
 872              		.loc 1 511 7 is_stmt 1 view .LVU315
 873 0024 9847     		blx	r3
 874              	.LVL113:
 875              	.L57:
 512:Drivers/STM32F3xx_HAL_Driver/Src/stm32f3xx_hal_exti.c ****     }
 513:Drivers/STM32F3xx_HAL_Driver/Src/stm32f3xx_hal_exti.c ****   }
 514:Drivers/STM32F3xx_HAL_Driver/Src/stm32f3xx_hal_exti.c **** }
 876              		.loc 1 514 1 is_stmt 0 view .LVU316
 877 0026 08BD     		pop	{r3, pc}
 878              	.L61:
 879              		.align	2
 880              	.L60:
 881 0028 14040140 		.word	1073808404
 882 002c 00040140 		.word	1073808384
 883              		.cfi_endproc
 884              	.LFE128:
 886              		.section	.text.HAL_EXTI_GetPending,"ax",%progbits
 887              		.align	1
 888              		.global	HAL_EXTI_GetPending
 889              		.syntax unified
 890              		.thumb
 891              		.thumb_func
 892              		.fpu fpv4-sp-d16
 894              	HAL_EXTI_GetPending:
 895              	.LVL114:
 896              	.LFB129:
 515:Drivers/STM32F3xx_HAL_Driver/Src/stm32f3xx_hal_exti.c **** 
 516:Drivers/STM32F3xx_HAL_Driver/Src/stm32f3xx_hal_exti.c **** /**
 517:Drivers/STM32F3xx_HAL_Driver/Src/stm32f3xx_hal_exti.c ****   * @brief  Get interrupt pending bit of a dedicated line.
 518:Drivers/STM32F3xx_HAL_Driver/Src/stm32f3xx_hal_exti.c ****   * @param  hexti Exti handle.
 519:Drivers/STM32F3xx_HAL_Driver/Src/stm32f3xx_hal_exti.c ****   * @param  Edge Specify which pending edge as to be checked.
 520:Drivers/STM32F3xx_HAL_Driver/Src/stm32f3xx_hal_exti.c ****   *         This parameter can be one of the following values:
 521:Drivers/STM32F3xx_HAL_Driver/Src/stm32f3xx_hal_exti.c ****   *           @arg @ref EXTI_TRIGGER_RISING_FALLING
 522:Drivers/STM32F3xx_HAL_Driver/Src/stm32f3xx_hal_exti.c ****   *         This parameter is kept for compatibility with other series.
 523:Drivers/STM32F3xx_HAL_Driver/Src/stm32f3xx_hal_exti.c ****   * @retval 1 if interrupt is pending else 0.
 524:Drivers/STM32F3xx_HAL_Driver/Src/stm32f3xx_hal_exti.c ****   */
 525:Drivers/STM32F3xx_HAL_Driver/Src/stm32f3xx_hal_exti.c **** uint32_t HAL_EXTI_GetPending(EXTI_HandleTypeDef *hexti, uint32_t Edge)
 526:Drivers/STM32F3xx_HAL_Driver/Src/stm32f3xx_hal_exti.c **** {
 897              		.loc 1 526 1 is_stmt 1 view -0
 898              		.cfi_startproc
 899              		@ args = 0, pretend = 0, frame = 0
 900              		@ frame_needed = 0, uses_anonymous_args = 0
 901              		@ link register save eliminated.
 527:Drivers/STM32F3xx_HAL_Driver/Src/stm32f3xx_hal_exti.c ****   __IO uint32_t *regaddr;
 902              		.loc 1 527 3 view .LVU318
 528:Drivers/STM32F3xx_HAL_Driver/Src/stm32f3xx_hal_exti.c ****   uint32_t regval;
ARM GAS  /var/folders/bp/hbn4m0qx5z54srgsq53w67zh0000gr/T//cckjtWMu.s 			page 27


 903              		.loc 1 528 3 view .LVU319
 529:Drivers/STM32F3xx_HAL_Driver/Src/stm32f3xx_hal_exti.c ****   uint32_t linepos;
 904              		.loc 1 529 3 view .LVU320
 530:Drivers/STM32F3xx_HAL_Driver/Src/stm32f3xx_hal_exti.c ****   uint32_t maskline;
 905              		.loc 1 530 3 view .LVU321
 531:Drivers/STM32F3xx_HAL_Driver/Src/stm32f3xx_hal_exti.c ****   uint32_t offset;
 906              		.loc 1 531 3 view .LVU322
 532:Drivers/STM32F3xx_HAL_Driver/Src/stm32f3xx_hal_exti.c **** 
 533:Drivers/STM32F3xx_HAL_Driver/Src/stm32f3xx_hal_exti.c ****   /* Check parameters */
 534:Drivers/STM32F3xx_HAL_Driver/Src/stm32f3xx_hal_exti.c ****   assert_param(IS_EXTI_LINE(hexti->Line));
 907              		.loc 1 534 3 view .LVU323
 535:Drivers/STM32F3xx_HAL_Driver/Src/stm32f3xx_hal_exti.c ****   assert_param(IS_EXTI_CONFIG_LINE(hexti->Line));
 908              		.loc 1 535 3 view .LVU324
 536:Drivers/STM32F3xx_HAL_Driver/Src/stm32f3xx_hal_exti.c ****   assert_param(IS_EXTI_PENDING_EDGE(Edge));
 909              		.loc 1 536 3 view .LVU325
 537:Drivers/STM32F3xx_HAL_Driver/Src/stm32f3xx_hal_exti.c **** 
 538:Drivers/STM32F3xx_HAL_Driver/Src/stm32f3xx_hal_exti.c ****   /* compute line register offset and line mask */
 539:Drivers/STM32F3xx_HAL_Driver/Src/stm32f3xx_hal_exti.c ****   offset = ((hexti->Line & EXTI_REG_MASK) >> EXTI_REG_SHIFT);
 910              		.loc 1 539 3 view .LVU326
 911              		.loc 1 539 19 is_stmt 0 view .LVU327
 912 0000 0368     		ldr	r3, [r0]
 913              		.loc 1 539 10 view .LVU328
 914 0002 C3F30041 		ubfx	r1, r3, #16, #1
 915              	.LVL115:
 540:Drivers/STM32F3xx_HAL_Driver/Src/stm32f3xx_hal_exti.c ****   linepos = (hexti->Line & EXTI_PIN_MASK);
 916              		.loc 1 540 3 is_stmt 1 view .LVU329
 917              		.loc 1 540 11 is_stmt 0 view .LVU330
 918 0006 03F01F03 		and	r3, r3, #31
 919              	.LVL116:
 541:Drivers/STM32F3xx_HAL_Driver/Src/stm32f3xx_hal_exti.c ****   maskline = (1uL << linepos);
 920              		.loc 1 541 3 is_stmt 1 view .LVU331
 921              		.loc 1 541 12 is_stmt 0 view .LVU332
 922 000a 0120     		movs	r0, #1
 923              	.LVL117:
 924              		.loc 1 541 12 view .LVU333
 925 000c 00FA03F2 		lsl	r2, r0, r3
 926              	.LVL118:
 542:Drivers/STM32F3xx_HAL_Driver/Src/stm32f3xx_hal_exti.c **** 
 543:Drivers/STM32F3xx_HAL_Driver/Src/stm32f3xx_hal_exti.c ****   /* Get pending bit  */
 544:Drivers/STM32F3xx_HAL_Driver/Src/stm32f3xx_hal_exti.c ****   regaddr = (&EXTI->PR + (EXTI_CONFIG_OFFSET * offset));
 927              		.loc 1 544 3 is_stmt 1 view .LVU334
 928              		.loc 1 544 24 is_stmt 0 view .LVU335
 929 0010 4901     		lsls	r1, r1, #5
 930              	.LVL119:
 931              		.loc 1 544 11 view .LVU336
 932 0012 0248     		ldr	r0, .L63
 933              	.LVL120:
 545:Drivers/STM32F3xx_HAL_Driver/Src/stm32f3xx_hal_exti.c ****   /* return 1 if bit is set else 0 */
 546:Drivers/STM32F3xx_HAL_Driver/Src/stm32f3xx_hal_exti.c ****   regval = ((*regaddr & maskline) >> linepos);
 934              		.loc 1 546 3 is_stmt 1 view .LVU337
 935              		.loc 1 546 14 is_stmt 0 view .LVU338
 936 0014 0858     		ldr	r0, [r1, r0]
 937              	.LVL121:
 938              		.loc 1 546 23 view .LVU339
 939 0016 1040     		ands	r0, r0, r2
 940              	.LVL122:
 547:Drivers/STM32F3xx_HAL_Driver/Src/stm32f3xx_hal_exti.c ****   return regval;
ARM GAS  /var/folders/bp/hbn4m0qx5z54srgsq53w67zh0000gr/T//cckjtWMu.s 			page 28


 941              		.loc 1 547 3 is_stmt 1 view .LVU340
 548:Drivers/STM32F3xx_HAL_Driver/Src/stm32f3xx_hal_exti.c **** }
 942              		.loc 1 548 1 is_stmt 0 view .LVU341
 943 0018 D840     		lsrs	r0, r0, r3
 944              	.LVL123:
 945              		.loc 1 548 1 view .LVU342
 946 001a 7047     		bx	lr
 947              	.L64:
 948              		.align	2
 949              	.L63:
 950 001c 14040140 		.word	1073808404
 951              		.cfi_endproc
 952              	.LFE129:
 954              		.section	.text.HAL_EXTI_ClearPending,"ax",%progbits
 955              		.align	1
 956              		.global	HAL_EXTI_ClearPending
 957              		.syntax unified
 958              		.thumb
 959              		.thumb_func
 960              		.fpu fpv4-sp-d16
 962              	HAL_EXTI_ClearPending:
 963              	.LVL124:
 964              	.LFB130:
 549:Drivers/STM32F3xx_HAL_Driver/Src/stm32f3xx_hal_exti.c **** 
 550:Drivers/STM32F3xx_HAL_Driver/Src/stm32f3xx_hal_exti.c **** /**
 551:Drivers/STM32F3xx_HAL_Driver/Src/stm32f3xx_hal_exti.c ****   * @brief  Clear interrupt pending bit of a dedicated line.
 552:Drivers/STM32F3xx_HAL_Driver/Src/stm32f3xx_hal_exti.c ****   * @param  hexti Exti handle.
 553:Drivers/STM32F3xx_HAL_Driver/Src/stm32f3xx_hal_exti.c ****   * @param  Edge Specify which pending edge as to be clear.
 554:Drivers/STM32F3xx_HAL_Driver/Src/stm32f3xx_hal_exti.c ****   *         This parameter can be one of the following values:
 555:Drivers/STM32F3xx_HAL_Driver/Src/stm32f3xx_hal_exti.c ****   *           @arg @ref EXTI_TRIGGER_RISING_FALLING
 556:Drivers/STM32F3xx_HAL_Driver/Src/stm32f3xx_hal_exti.c ****   *         This parameter is kept for compatibility with other series.
 557:Drivers/STM32F3xx_HAL_Driver/Src/stm32f3xx_hal_exti.c ****   * @retval None.
 558:Drivers/STM32F3xx_HAL_Driver/Src/stm32f3xx_hal_exti.c ****   */
 559:Drivers/STM32F3xx_HAL_Driver/Src/stm32f3xx_hal_exti.c **** void HAL_EXTI_ClearPending(EXTI_HandleTypeDef *hexti, uint32_t Edge)
 560:Drivers/STM32F3xx_HAL_Driver/Src/stm32f3xx_hal_exti.c **** {
 965              		.loc 1 560 1 is_stmt 1 view -0
 966              		.cfi_startproc
 967              		@ args = 0, pretend = 0, frame = 0
 968              		@ frame_needed = 0, uses_anonymous_args = 0
 969              		@ link register save eliminated.
 561:Drivers/STM32F3xx_HAL_Driver/Src/stm32f3xx_hal_exti.c ****   __IO uint32_t *regaddr;
 970              		.loc 1 561 3 view .LVU344
 562:Drivers/STM32F3xx_HAL_Driver/Src/stm32f3xx_hal_exti.c ****   uint32_t maskline;
 971              		.loc 1 562 3 view .LVU345
 563:Drivers/STM32F3xx_HAL_Driver/Src/stm32f3xx_hal_exti.c ****   uint32_t offset;
 972              		.loc 1 563 3 view .LVU346
 564:Drivers/STM32F3xx_HAL_Driver/Src/stm32f3xx_hal_exti.c **** 
 565:Drivers/STM32F3xx_HAL_Driver/Src/stm32f3xx_hal_exti.c ****   /* Check parameters */
 566:Drivers/STM32F3xx_HAL_Driver/Src/stm32f3xx_hal_exti.c ****   assert_param(IS_EXTI_LINE(hexti->Line));
 973              		.loc 1 566 3 view .LVU347
 567:Drivers/STM32F3xx_HAL_Driver/Src/stm32f3xx_hal_exti.c ****   assert_param(IS_EXTI_CONFIG_LINE(hexti->Line));
 974              		.loc 1 567 3 view .LVU348
 568:Drivers/STM32F3xx_HAL_Driver/Src/stm32f3xx_hal_exti.c ****   assert_param(IS_EXTI_PENDING_EDGE(Edge));
 975              		.loc 1 568 3 view .LVU349
 569:Drivers/STM32F3xx_HAL_Driver/Src/stm32f3xx_hal_exti.c **** 
 570:Drivers/STM32F3xx_HAL_Driver/Src/stm32f3xx_hal_exti.c ****   /* compute line register offset and line mask */
 571:Drivers/STM32F3xx_HAL_Driver/Src/stm32f3xx_hal_exti.c ****   offset = ((hexti->Line & EXTI_REG_MASK) >> EXTI_REG_SHIFT);
ARM GAS  /var/folders/bp/hbn4m0qx5z54srgsq53w67zh0000gr/T//cckjtWMu.s 			page 29


 976              		.loc 1 571 3 view .LVU350
 977              		.loc 1 571 19 is_stmt 0 view .LVU351
 978 0000 0368     		ldr	r3, [r0]
 979              		.loc 1 571 10 view .LVU352
 980 0002 C3F30042 		ubfx	r2, r3, #16, #1
 981              	.LVL125:
 572:Drivers/STM32F3xx_HAL_Driver/Src/stm32f3xx_hal_exti.c ****   maskline = (1uL << (hexti->Line & EXTI_PIN_MASK));
 982              		.loc 1 572 3 is_stmt 1 view .LVU353
 983              		.loc 1 572 35 is_stmt 0 view .LVU354
 984 0006 03F01F03 		and	r3, r3, #31
 985              		.loc 1 572 12 view .LVU355
 986 000a 0121     		movs	r1, #1
 987              	.LVL126:
 988              		.loc 1 572 12 view .LVU356
 989 000c 01FA03F3 		lsl	r3, r1, r3
 990              	.LVL127:
 573:Drivers/STM32F3xx_HAL_Driver/Src/stm32f3xx_hal_exti.c **** 
 574:Drivers/STM32F3xx_HAL_Driver/Src/stm32f3xx_hal_exti.c ****   /* Get pending bit  */
 575:Drivers/STM32F3xx_HAL_Driver/Src/stm32f3xx_hal_exti.c ****   regaddr = (&EXTI->PR + (EXTI_CONFIG_OFFSET * offset));
 991              		.loc 1 575 3 is_stmt 1 view .LVU357
 992              		.loc 1 575 24 is_stmt 0 view .LVU358
 993 0010 5201     		lsls	r2, r2, #5
 994              	.LVL128:
 995              		.loc 1 575 11 view .LVU359
 996 0012 0149     		ldr	r1, .L66
 997              	.LVL129:
 576:Drivers/STM32F3xx_HAL_Driver/Src/stm32f3xx_hal_exti.c **** 
 577:Drivers/STM32F3xx_HAL_Driver/Src/stm32f3xx_hal_exti.c ****   /* Clear Pending bit */
 578:Drivers/STM32F3xx_HAL_Driver/Src/stm32f3xx_hal_exti.c ****   *regaddr =  maskline;
 998              		.loc 1 578 3 is_stmt 1 view .LVU360
 999              		.loc 1 578 12 is_stmt 0 view .LVU361
 1000 0014 5350     		str	r3, [r2, r1]
 1001              	.LVL130:
 579:Drivers/STM32F3xx_HAL_Driver/Src/stm32f3xx_hal_exti.c **** }
 1002              		.loc 1 579 1 view .LVU362
 1003 0016 7047     		bx	lr
 1004              	.L67:
 1005              		.align	2
 1006              	.L66:
 1007 0018 14040140 		.word	1073808404
 1008              		.cfi_endproc
 1009              	.LFE130:
 1011              		.section	.text.HAL_EXTI_GenerateSWI,"ax",%progbits
 1012              		.align	1
 1013              		.global	HAL_EXTI_GenerateSWI
 1014              		.syntax unified
 1015              		.thumb
 1016              		.thumb_func
 1017              		.fpu fpv4-sp-d16
 1019              	HAL_EXTI_GenerateSWI:
 1020              	.LVL131:
 1021              	.LFB131:
 580:Drivers/STM32F3xx_HAL_Driver/Src/stm32f3xx_hal_exti.c **** 
 581:Drivers/STM32F3xx_HAL_Driver/Src/stm32f3xx_hal_exti.c **** /**
 582:Drivers/STM32F3xx_HAL_Driver/Src/stm32f3xx_hal_exti.c ****   * @brief  Generate a software interrupt for a dedicated line.
 583:Drivers/STM32F3xx_HAL_Driver/Src/stm32f3xx_hal_exti.c ****   * @param  hexti Exti handle.
 584:Drivers/STM32F3xx_HAL_Driver/Src/stm32f3xx_hal_exti.c ****   * @retval None.
ARM GAS  /var/folders/bp/hbn4m0qx5z54srgsq53w67zh0000gr/T//cckjtWMu.s 			page 30


 585:Drivers/STM32F3xx_HAL_Driver/Src/stm32f3xx_hal_exti.c ****   */
 586:Drivers/STM32F3xx_HAL_Driver/Src/stm32f3xx_hal_exti.c **** void HAL_EXTI_GenerateSWI(EXTI_HandleTypeDef *hexti)
 587:Drivers/STM32F3xx_HAL_Driver/Src/stm32f3xx_hal_exti.c **** {
 1022              		.loc 1 587 1 is_stmt 1 view -0
 1023              		.cfi_startproc
 1024              		@ args = 0, pretend = 0, frame = 0
 1025              		@ frame_needed = 0, uses_anonymous_args = 0
 1026              		@ link register save eliminated.
 588:Drivers/STM32F3xx_HAL_Driver/Src/stm32f3xx_hal_exti.c ****   __IO uint32_t *regaddr;
 1027              		.loc 1 588 3 view .LVU364
 589:Drivers/STM32F3xx_HAL_Driver/Src/stm32f3xx_hal_exti.c ****   uint32_t maskline;
 1028              		.loc 1 589 3 view .LVU365
 590:Drivers/STM32F3xx_HAL_Driver/Src/stm32f3xx_hal_exti.c ****   uint32_t offset;
 1029              		.loc 1 590 3 view .LVU366
 591:Drivers/STM32F3xx_HAL_Driver/Src/stm32f3xx_hal_exti.c **** 
 592:Drivers/STM32F3xx_HAL_Driver/Src/stm32f3xx_hal_exti.c ****   /* Check parameters */
 593:Drivers/STM32F3xx_HAL_Driver/Src/stm32f3xx_hal_exti.c ****   assert_param(IS_EXTI_LINE(hexti->Line));
 1030              		.loc 1 593 3 view .LVU367
 594:Drivers/STM32F3xx_HAL_Driver/Src/stm32f3xx_hal_exti.c ****   assert_param(IS_EXTI_CONFIG_LINE(hexti->Line));
 1031              		.loc 1 594 3 view .LVU368
 595:Drivers/STM32F3xx_HAL_Driver/Src/stm32f3xx_hal_exti.c **** 
 596:Drivers/STM32F3xx_HAL_Driver/Src/stm32f3xx_hal_exti.c ****   /* compute line register offset and line mask */
 597:Drivers/STM32F3xx_HAL_Driver/Src/stm32f3xx_hal_exti.c ****   offset = ((hexti->Line & EXTI_REG_MASK) >> EXTI_REG_SHIFT);
 1032              		.loc 1 597 3 view .LVU369
 1033              		.loc 1 597 19 is_stmt 0 view .LVU370
 1034 0000 0368     		ldr	r3, [r0]
 1035              		.loc 1 597 10 view .LVU371
 1036 0002 C3F30042 		ubfx	r2, r3, #16, #1
 1037              	.LVL132:
 598:Drivers/STM32F3xx_HAL_Driver/Src/stm32f3xx_hal_exti.c ****   maskline = (1uL << (hexti->Line & EXTI_PIN_MASK));
 1038              		.loc 1 598 3 is_stmt 1 view .LVU372
 1039              		.loc 1 598 35 is_stmt 0 view .LVU373
 1040 0006 03F01F03 		and	r3, r3, #31
 1041              		.loc 1 598 12 view .LVU374
 1042 000a 0121     		movs	r1, #1
 1043 000c 01FA03F3 		lsl	r3, r1, r3
 1044              	.LVL133:
 599:Drivers/STM32F3xx_HAL_Driver/Src/stm32f3xx_hal_exti.c **** 
 600:Drivers/STM32F3xx_HAL_Driver/Src/stm32f3xx_hal_exti.c ****   regaddr = (&EXTI->SWIER + (EXTI_CONFIG_OFFSET * offset));
 1045              		.loc 1 600 3 is_stmt 1 view .LVU375
 1046              		.loc 1 600 27 is_stmt 0 view .LVU376
 1047 0010 5201     		lsls	r2, r2, #5
 1048              	.LVL134:
 1049              		.loc 1 600 11 view .LVU377
 1050 0012 0149     		ldr	r1, .L69
 1051              	.LVL135:
 601:Drivers/STM32F3xx_HAL_Driver/Src/stm32f3xx_hal_exti.c ****   *regaddr = maskline;
 1052              		.loc 1 601 3 is_stmt 1 view .LVU378
 1053              		.loc 1 601 12 is_stmt 0 view .LVU379
 1054 0014 5350     		str	r3, [r2, r1]
 1055              	.LVL136:
 602:Drivers/STM32F3xx_HAL_Driver/Src/stm32f3xx_hal_exti.c **** }
 1056              		.loc 1 602 1 view .LVU380
 1057 0016 7047     		bx	lr
 1058              	.L70:
 1059              		.align	2
 1060              	.L69:
ARM GAS  /var/folders/bp/hbn4m0qx5z54srgsq53w67zh0000gr/T//cckjtWMu.s 			page 31


 1061 0018 10040140 		.word	1073808400
 1062              		.cfi_endproc
 1063              	.LFE131:
 1065              		.text
 1066              	.Letext0:
 1067              		.file 2 "/opt/homebrew/Cellar/arm-none-eabi-gcc/10.3-2021.07/gcc/arm-none-eabi/include/machine/_de
 1068              		.file 3 "/opt/homebrew/Cellar/arm-none-eabi-gcc/10.3-2021.07/gcc/arm-none-eabi/include/sys/_stdint
 1069              		.file 4 "Drivers/CMSIS/Device/ST/STM32F3xx/Include/stm32f303x8.h"
 1070              		.file 5 "Drivers/STM32F3xx_HAL_Driver/Inc/stm32f3xx_hal_def.h"
 1071              		.file 6 "Drivers/STM32F3xx_HAL_Driver/Inc/stm32f3xx_hal_exti.h"
ARM GAS  /var/folders/bp/hbn4m0qx5z54srgsq53w67zh0000gr/T//cckjtWMu.s 			page 32

